ARM Linker, 4.1 [Build 894] [Standard]

==============================================================================

Section Cross References

    startup_stm32f10x_hd.o(RESET) refers to startup_stm32f10x_hd.o(STACK) for __initial_sp
    startup_stm32f10x_hd.o(RESET) refers to startup_stm32f10x_hd.o(.text) for Reset_Handler
    startup_stm32f10x_hd.o(RESET) refers to stm32f10x_it.o(i.NMI_Handler) for NMI_Handler
    startup_stm32f10x_hd.o(RESET) refers to stm32f10x_it.o(i.HardFault_Handler) for HardFault_Handler
    startup_stm32f10x_hd.o(RESET) refers to stm32f10x_it.o(i.MemManage_Handler) for MemManage_Handler
    startup_stm32f10x_hd.o(RESET) refers to stm32f10x_it.o(i.BusFault_Handler) for BusFault_Handler
    startup_stm32f10x_hd.o(RESET) refers to stm32f10x_it.o(i.UsageFault_Handler) for UsageFault_Handler
    startup_stm32f10x_hd.o(RESET) refers to stm32f10x_it.o(i.SVC_Handler) for SVC_Handler
    startup_stm32f10x_hd.o(RESET) refers to stm32f10x_it.o(i.DebugMon_Handler) for DebugMon_Handler
    startup_stm32f10x_hd.o(RESET) refers to stm32f10x_it.o(i.PendSV_Handler) for PendSV_Handler
    startup_stm32f10x_hd.o(RESET) refers to stm32f10x_it.o(i.SysTick_Handler) for SysTick_Handler
    startup_stm32f10x_hd.o(RESET) refers to stm32f10x_it.o(i.PVD_IRQHandler) for PVD_IRQHandler
    startup_stm32f10x_hd.o(RESET) refers to stm32f10x_it.o(i.EXTI0_IRQHandler) for EXTI0_IRQHandler
    startup_stm32f10x_hd.o(RESET) refers to stm32f10x_it.o(i.EXTI1_IRQHandler) for EXTI1_IRQHandler
    startup_stm32f10x_hd.o(RESET) refers to stm32f10x_it.o(i.EXTI2_IRQHandler) for EXTI2_IRQHandler
    startup_stm32f10x_hd.o(RESET) refers to stm32f10x_it.o(i.EXTI3_IRQHandler) for EXTI3_IRQHandler
    startup_stm32f10x_hd.o(RESET) refers to stm32f10x_it.o(i.EXTI4_IRQHandler) for EXTI4_IRQHandler
    startup_stm32f10x_hd.o(RESET) refers to usb_it.o(i.USB_LP_CAN1_RX0_IRQHandler) for USB_LP_CAN1_RX0_IRQHandler
    startup_stm32f10x_hd.o(RESET) refers to stm32f10x_it.o(i.EXTI9_5_IRQHandler) for EXTI9_5_IRQHandler
    startup_stm32f10x_hd.o(RESET) refers to usb_endp.o(i.TIM2_IRQHandler) for TIM2_IRQHandler
    startup_stm32f10x_hd.o(RESET) refers to stm32f10x_it.o(i.TIM3_IRQHandler) for TIM3_IRQHandler
    startup_stm32f10x_hd.o(RESET) refers to stm32f10x_it.o(i.TIM4_IRQHandler) for TIM4_IRQHandler
    startup_stm32f10x_hd.o(RESET) refers to qrcode.o(i.USART1_IRQHandler) for USART1_IRQHandler
    startup_stm32f10x_hd.o(RESET) refers to hostcomm.o(i.USART2_IRQHandler) for USART2_IRQHandler
    startup_stm32f10x_hd.o(RESET) refers to stm32f10x_it.o(i.EXTI15_10_IRQHandler) for EXTI15_10_IRQHandler
    startup_stm32f10x_hd.o(RESET) refers to usb_it.o(i.USBWakeUp_IRQHandler) for USBWakeUp_IRQHandler
    startup_stm32f10x_hd.o(RESET) refers to stm32f10x_it.o(i.TIM7_IRQHandler) for TIM7_IRQHandler
    startup_stm32f10x_hd.o(.text) refers to system_stm32f10x.o(i.SystemInit) for SystemInit
    startup_stm32f10x_hd.o(.text) refers to entry.o(.ARM.Collect$$$$00000000) for __main
    system_stm32f10x.o(i.SetSysClock) refers to system_stm32f10x.o(i.SetSysClockTo72) for SetSysClockTo72
    system_stm32f10x.o(i.SystemCoreClockUpdate) refers to system_stm32f10x.o(.data) for SystemCoreClock
    system_stm32f10x.o(i.SystemInit) refers to system_stm32f10x.o(i.SetSysClock) for SetSysClock
    stm32f10x_adc.o(i.ADC_DeInit) refers to stm32f10x_rcc.o(i.RCC_APB2PeriphResetCmd) for RCC_APB2PeriphResetCmd
    stm32f10x_bkp.o(i.BKP_DeInit) refers to stm32f10x_rcc.o(i.RCC_BackupResetCmd) for RCC_BackupResetCmd
    stm32f10x_can.o(i.CAN_DeInit) refers to stm32f10x_rcc.o(i.RCC_APB1PeriphResetCmd) for RCC_APB1PeriphResetCmd
    stm32f10x_can.o(i.CAN_GetITStatus) refers to stm32f10x_can.o(i.CheckITStatus) for CheckITStatus
    stm32f10x_cec.o(i.CEC_DeInit) refers to stm32f10x_rcc.o(i.RCC_APB1PeriphResetCmd) for RCC_APB1PeriphResetCmd
    stm32f10x_dac.o(i.DAC_DeInit) refers to stm32f10x_rcc.o(i.RCC_APB1PeriphResetCmd) for RCC_APB1PeriphResetCmd
    stm32f10x_flash.o(i.FLASH_EnableWriteProtection) refers to stm32f10x_flash.o(i.FLASH_WaitForLastOperation) for FLASH_WaitForLastOperation
    stm32f10x_flash.o(i.FLASH_EraseAllBank1Pages) refers to stm32f10x_flash.o(i.FLASH_WaitForLastBank1Operation) for FLASH_WaitForLastBank1Operation
    stm32f10x_flash.o(i.FLASH_EraseAllPages) refers to stm32f10x_flash.o(i.FLASH_WaitForLastOperation) for FLASH_WaitForLastOperation
    stm32f10x_flash.o(i.FLASH_EraseOptionBytes) refers to stm32f10x_flash.o(i.FLASH_GetReadOutProtectionStatus) for FLASH_GetReadOutProtectionStatus
    stm32f10x_flash.o(i.FLASH_EraseOptionBytes) refers to stm32f10x_flash.o(i.FLASH_WaitForLastOperation) for FLASH_WaitForLastOperation
    stm32f10x_flash.o(i.FLASH_ErasePage) refers to stm32f10x_flash.o(i.FLASH_WaitForLastOperation) for FLASH_WaitForLastOperation
    stm32f10x_flash.o(i.FLASH_ProgramHalfWord) refers to stm32f10x_flash.o(i.FLASH_WaitForLastOperation) for FLASH_WaitForLastOperation
    stm32f10x_flash.o(i.FLASH_ProgramOptionByteData) refers to stm32f10x_flash.o(i.FLASH_WaitForLastOperation) for FLASH_WaitForLastOperation
    stm32f10x_flash.o(i.FLASH_ProgramWord) refers to stm32f10x_flash.o(i.FLASH_WaitForLastOperation) for FLASH_WaitForLastOperation
    stm32f10x_flash.o(i.FLASH_ReadOutProtection) refers to stm32f10x_flash.o(i.FLASH_WaitForLastOperation) for FLASH_WaitForLastOperation
    stm32f10x_flash.o(i.FLASH_UserOptionByteConfig) refers to stm32f10x_flash.o(i.FLASH_WaitForLastOperation) for FLASH_WaitForLastOperation
    stm32f10x_flash.o(i.FLASH_WaitForLastBank1Operation) refers to stm32f10x_flash.o(i.FLASH_GetBank1Status) for FLASH_GetBank1Status
    stm32f10x_flash.o(i.FLASH_WaitForLastOperation) refers to stm32f10x_flash.o(i.FLASH_GetBank1Status) for FLASH_GetBank1Status
    stm32f10x_gpio.o(i.GPIO_AFIODeInit) refers to stm32f10x_rcc.o(i.RCC_APB2PeriphResetCmd) for RCC_APB2PeriphResetCmd
    stm32f10x_gpio.o(i.GPIO_DeInit) refers to stm32f10x_rcc.o(i.RCC_APB2PeriphResetCmd) for RCC_APB2PeriphResetCmd
    stm32f10x_i2c.o(i.I2C_DeInit) refers to stm32f10x_rcc.o(i.RCC_APB1PeriphResetCmd) for RCC_APB1PeriphResetCmd
    stm32f10x_i2c.o(i.I2C_Init) refers to stm32f10x_rcc.o(i.RCC_GetClocksFreq) for RCC_GetClocksFreq
    stm32f10x_pwr.o(i.PWR_DeInit) refers to stm32f10x_rcc.o(i.RCC_APB1PeriphResetCmd) for RCC_APB1PeriphResetCmd
    stm32f10x_rcc.o(i.RCC_GetClocksFreq) refers to stm32f10x_rcc.o(.data) for APBAHBPrescTable
    stm32f10x_rcc.o(i.RCC_WaitForHSEStartUp) refers to stm32f10x_rcc.o(i.RCC_GetFlagStatus) for RCC_GetFlagStatus
    stm32f10x_rtc.o(i.RTC_SetAlarm) refers to stm32f10x_rtc.o(i.RTC_EnterConfigMode) for RTC_EnterConfigMode
    stm32f10x_rtc.o(i.RTC_SetAlarm) refers to stm32f10x_rtc.o(i.RTC_ExitConfigMode) for RTC_ExitConfigMode
    stm32f10x_rtc.o(i.RTC_SetCounter) refers to stm32f10x_rtc.o(i.RTC_EnterConfigMode) for RTC_EnterConfigMode
    stm32f10x_rtc.o(i.RTC_SetCounter) refers to stm32f10x_rtc.o(i.RTC_ExitConfigMode) for RTC_ExitConfigMode
    stm32f10x_rtc.o(i.RTC_SetPrescaler) refers to stm32f10x_rtc.o(i.RTC_EnterConfigMode) for RTC_EnterConfigMode
    stm32f10x_rtc.o(i.RTC_SetPrescaler) refers to stm32f10x_rtc.o(i.RTC_ExitConfigMode) for RTC_ExitConfigMode
    stm32f10x_spi.o(i.I2S_Init) refers to stm32f10x_rcc.o(i.RCC_GetClocksFreq) for RCC_GetClocksFreq
    stm32f10x_spi.o(i.SPI_I2S_DeInit) refers to stm32f10x_rcc.o(i.RCC_APB2PeriphResetCmd) for RCC_APB2PeriphResetCmd
    stm32f10x_spi.o(i.SPI_I2S_DeInit) refers to stm32f10x_rcc.o(i.RCC_APB1PeriphResetCmd) for RCC_APB1PeriphResetCmd
    stm32f10x_tim.o(i.TIM_DeInit) refers to stm32f10x_rcc.o(i.RCC_APB2PeriphResetCmd) for RCC_APB2PeriphResetCmd
    stm32f10x_tim.o(i.TIM_DeInit) refers to stm32f10x_rcc.o(i.RCC_APB1PeriphResetCmd) for RCC_APB1PeriphResetCmd
    stm32f10x_tim.o(i.TIM_ETRClockMode1Config) refers to stm32f10x_tim.o(i.TIM_ETRConfig) for TIM_ETRConfig
    stm32f10x_tim.o(i.TIM_ETRClockMode2Config) refers to stm32f10x_tim.o(i.TIM_ETRConfig) for TIM_ETRConfig
    stm32f10x_tim.o(i.TIM_ICInit) refers to stm32f10x_tim.o(i.TI1_Config) for TI1_Config
    stm32f10x_tim.o(i.TIM_ICInit) refers to stm32f10x_tim.o(i.TIM_SetIC1Prescaler) for TIM_SetIC1Prescaler
    stm32f10x_tim.o(i.TIM_ICInit) refers to stm32f10x_tim.o(i.TI2_Config) for TI2_Config
    stm32f10x_tim.o(i.TIM_ICInit) refers to stm32f10x_tim.o(i.TIM_SetIC2Prescaler) for TIM_SetIC2Prescaler
    stm32f10x_tim.o(i.TIM_ICInit) refers to stm32f10x_tim.o(i.TI3_Config) for TI3_Config
    stm32f10x_tim.o(i.TIM_ICInit) refers to stm32f10x_tim.o(i.TIM_SetIC3Prescaler) for TIM_SetIC3Prescaler
    stm32f10x_tim.o(i.TIM_ICInit) refers to stm32f10x_tim.o(i.TI4_Config) for TI4_Config
    stm32f10x_tim.o(i.TIM_ICInit) refers to stm32f10x_tim.o(i.TIM_SetIC4Prescaler) for TIM_SetIC4Prescaler
    stm32f10x_tim.o(i.TIM_ITRxExternalClockConfig) refers to stm32f10x_tim.o(i.TIM_SelectInputTrigger) for TIM_SelectInputTrigger
    stm32f10x_tim.o(i.TIM_PWMIConfig) refers to stm32f10x_tim.o(i.TI1_Config) for TI1_Config
    stm32f10x_tim.o(i.TIM_PWMIConfig) refers to stm32f10x_tim.o(i.TIM_SetIC1Prescaler) for TIM_SetIC1Prescaler
    stm32f10x_tim.o(i.TIM_PWMIConfig) refers to stm32f10x_tim.o(i.TI2_Config) for TI2_Config
    stm32f10x_tim.o(i.TIM_PWMIConfig) refers to stm32f10x_tim.o(i.TIM_SetIC2Prescaler) for TIM_SetIC2Prescaler
    stm32f10x_tim.o(i.TIM_TIxExternalClockConfig) refers to stm32f10x_tim.o(i.TI2_Config) for TI2_Config
    stm32f10x_tim.o(i.TIM_TIxExternalClockConfig) refers to stm32f10x_tim.o(i.TI1_Config) for TI1_Config
    stm32f10x_tim.o(i.TIM_TIxExternalClockConfig) refers to stm32f10x_tim.o(i.TIM_SelectInputTrigger) for TIM_SelectInputTrigger
    stm32f10x_usart.o(i.USART_DeInit) refers to stm32f10x_rcc.o(i.RCC_APB2PeriphResetCmd) for RCC_APB2PeriphResetCmd
    stm32f10x_usart.o(i.USART_DeInit) refers to stm32f10x_rcc.o(i.RCC_APB1PeriphResetCmd) for RCC_APB1PeriphResetCmd
    stm32f10x_usart.o(i.USART_Init) refers to stm32f10x_rcc.o(i.RCC_GetClocksFreq) for RCC_GetClocksFreq
    stm32f10x_wwdg.o(i.WWDG_DeInit) refers to stm32f10x_rcc.o(i.RCC_APB1PeriphResetCmd) for RCC_APB1PeriphResetCmd
    main.o(i.Delay_ms) refers to main.o(.data) for TimingDelay
    main.o(i.Status_Init) refers to stm32f10x_gpio.o(i.GPIO_SetBits) for GPIO_SetBits
    main.o(i.Status_Init) refers to displaydriver.o(i.DisplayDriver_DrawPic) for DisplayDriver_DrawPic
    main.o(i.Status_Init) refers to displaydriver.o(i.Lcd_ColorBox) for Lcd_ColorBox
    main.o(i.Status_Init) refers to interface_main.o(i.Battery_Empty_ICO) for Battery_Empty_ICO
    main.o(i.Status_Init) refers to rotationmotor.o(i.RotationMotor_SelfCheck_StepDrive) for RotationMotor_SelfCheck_StepDrive
    main.o(i.Status_Init) refers to scanmotordriver.o(i.ScanMotorDriver_SelfCheck_StepDrive) for ScanMotorDriver_SelfCheck_StepDrive
    main.o(i.Status_Init) refers to main.o(.data) for Display_Time
    main.o(i.Status_Init) refers to interface_main.o(.constdata) for gImage_Power_on
    main.o(i.TimingDelay_Decrement) refers to main.o(.data) for TimingDelay
    main.o(i.main) refers to displaydriver.o(i.RCC_Configuration) for RCC_Configuration
    main.o(i.main) refers to humaninput.o(i.HumanInput_Init) for HumanInput_Init
    main.o(i.main) refers to displaydriver.o(i.DisplayDriver_Init) for DisplayDriver_Init
    main.o(i.main) refers to main.o(i.SysTick_Init) for SysTick_Init
    main.o(i.main) refers to systemmanage_rtc.o(i.PCF8563_Init) for PCF8563_Init
    main.o(i.main) refers to humaninput.o(i.EXTIX_Init) for EXTIX_Init
    main.o(i.main) refers to qrcode.o(i.QRCode_Init) for QRCode_Init
    main.o(i.main) refers to rotationmotor.o(i.RotationMotor_Init) for RotationMotor_Init
    main.o(i.main) refers to scanmotordriver.o(i.ScanMotorDriver_Init) for ScanMotorDriver_Init
    main.o(i.main) refers to signalprocess_sample.o(i.SignalSample_Sample_Init) for SignalSample_Sample_Init
    main.o(i.main) refers to usb.o(i.USB_VirtualCOM_Init) for USB_VirtualCOM_Init
    main.o(i.main) refers to main.o(i.Status_Init) for Status_Init
    main.o(i.main) refers to hostcomm.o(i.HostComm_Init) for HostComm_Init
    main.o(i.main) refers to interface_main.o(i.Interface_Process) for Interface_Process
    stm32f10x_it.o(i.EXTI1_IRQHandler) refers to scanmotordriver_positionsensor.o(i.ScanMotorDriver_PositionSensor_Int_Disable) for ScanMotorDriver_PositionSensor_Int_Disable
    stm32f10x_it.o(i.EXTI1_IRQHandler) refers to stm32f10x_exti.o(i.EXTI_ClearITPendingBit) for EXTI_ClearITPendingBit
    stm32f10x_it.o(i.EXTI1_IRQHandler) refers to scanmotordriver.o(.data) for ScanMotorDriver_InBasePosition
    stm32f10x_it.o(i.EXTI2_IRQHandler) refers to rotationmotordriver_positionsensor.o(i.RotaMotorDriver_PositionSensor_Int_Disable) for RotaMotorDriver_PositionSensor_Int_Disable
    stm32f10x_it.o(i.EXTI2_IRQHandler) refers to stm32f10x_exti.o(i.EXTI_ClearITPendingBit) for EXTI_ClearITPendingBit
    stm32f10x_it.o(i.EXTI4_IRQHandler) refers to stm32f10x_exti.o(i.EXTI_GetITStatus) for EXTI_GetITStatus
    stm32f10x_it.o(i.EXTI4_IRQHandler) refers to stm32f10x_exti.o(i.EXTI_ClearITPendingBit) for EXTI_ClearITPendingBit
    stm32f10x_it.o(i.EXTI4_IRQHandler) refers to humaninput.o(i.EXTI_Key_Confirm_Disable) for EXTI_Key_Confirm_Disable
    stm32f10x_it.o(i.EXTI4_IRQHandler) refers to stm32f10x_it.o(.data) for Exti_lock
    stm32f10x_it.o(i.EXTI9_5_IRQHandler) refers to stm32f10x_exti.o(i.EXTI_GetITStatus) for EXTI_GetITStatus
    stm32f10x_it.o(i.EXTI9_5_IRQHandler) refers to stm32f10x_it.o(i.Delay_ms_SW) for Delay_ms_SW
    stm32f10x_it.o(i.EXTI9_5_IRQHandler) refers to humaninput.o(i.Key_Right) for Key_Right
    stm32f10x_it.o(i.EXTI9_5_IRQHandler) refers to humaninput.o(i.Key_Left) for Key_Left
    stm32f10x_it.o(i.EXTI9_5_IRQHandler) refers to stm32f10x_exti.o(i.EXTI_ClearITPendingBit) for EXTI_ClearITPendingBit
    stm32f10x_it.o(i.EXTI9_5_IRQHandler) refers to stm32f10x_it.o(.data) for Exti_lock
    stm32f10x_it.o(i.SysTick_Handler) refers to main.o(i.TimingDelay_Decrement) for TimingDelay_Decrement
    stm32f10x_it.o(i.SysTick_Handler) refers to interface_main.o(i.UI_Draw_Status_Bar) for UI_Draw_Status_Bar
    stm32f10x_it.o(i.SysTick_Handler) refers to stm32f10x_gpio.o(i.GPIO_ReadInputDataBit) for GPIO_ReadInputDataBit
    stm32f10x_it.o(i.SysTick_Handler) refers to humaninput.o(i.EXTI_Key_Confirm_Enable) for EXTI_Key_Confirm_Enable
    stm32f10x_it.o(i.SysTick_Handler) refers to humaninput.o(i.Key_Confirm) for Key_Confirm
    stm32f10x_it.o(i.SysTick_Handler) refers to stm32f10x_it.o(.data) for se_count
    stm32f10x_it.o(i.SysTick_Handler) refers to main.o(.data) for Display_Time
    stm32f10x_it.o(i.TIM3_IRQHandler) refers to stm32f10x_tim.o(i.TIM_GetITStatus) for TIM_GetITStatus
    stm32f10x_it.o(i.TIM3_IRQHandler) refers to stm32f10x_tim.o(i.TIM_ClearITPendingBit) for TIM_ClearITPendingBit
    stm32f10x_it.o(i.TIM3_IRQHandler) refers to signalprocess_sample.o(.data) for SignalSample_moveThenSample
    rotationmotor.o(i.RotaMotorDriver_GPIO_Init) refers to stm32f10x_gpio.o(i.GPIO_Init) for GPIO_Init
    rotationmotor.o(i.RotaMotorDriver_GPIO_Init) refers to stm32f10x_gpio.o(i.GPIO_SetBits) for GPIO_SetBits
    rotationmotor.o(i.RotationMotor_Init) refers to rotationmotor.o(i.RotaMotorDriver_GPIO_Init) for RotaMotorDriver_GPIO_Init
    rotationmotor.o(i.RotationMotor_Init) refers to rotationmotordriver_positionsensor.o(i.RotaMotorDriver_PositionSensor_Init) for RotaMotorDriver_PositionSensor_Init
    rotationmotor.o(i.RotationMotor_Input_StepDrive) refers to rotationmotor.o(i.RotationMotor_StepDrive_Min) for RotationMotor_StepDrive_Min
    rotationmotor.o(i.RotationMotor_Input_StepDrive) refers to rotationmotor.o(.data) for Step_count
    rotationmotor.o(i.RotationMotor_PIN) refers to stm32f10x_gpio.o(i.GPIO_WriteBit) for GPIO_WriteBit
    rotationmotor.o(i.RotationMotor_PIN) refers to rotationmotor.o(.data) for Step2
    rotationmotor.o(i.RotationMotor_SelfCheck_StepDrive) refers to scanmotordriver.o(i.SystemManage_5V_Enabled) for SystemManage_5V_Enabled
    rotationmotor.o(i.RotationMotor_SelfCheck_StepDrive) refers to rotationmotor.o(i.RotationMotor_StepDrive_Min) for RotationMotor_StepDrive_Min
    rotationmotor.o(i.RotationMotor_SelfCheck_StepDrive) refers to stm32f10x_gpio.o(i.GPIO_ReadInputDataBit) for GPIO_ReadInputDataBit
    rotationmotor.o(i.RotationMotor_SelfCheck_StepDrive) refers to rotationmotor.o(i.RotationMotor_Input_StepDrive) for RotationMotor_Input_StepDrive
    rotationmotor.o(i.RotationMotor_SelfCheck_StepDrive) refers to scanmotordriver.o(i.SystemManage_5V_Disabled) for SystemManage_5V_Disabled
    rotationmotor.o(i.RotationMotor_SelfCheck_StepDrive) refers to rotationmotor.o(.data) for Num_Down
    rotationmotor.o(i.RotationMotor_StepDrive_Min) refers to rotationmotor.o(i.RotationMotor_PIN) for RotationMotor_PIN
    rotationmotor.o(i.RotationMotor_StepDrive_Min) refers to rotationmotor.o(i.Delay_us) for Delay_us
    displaydriver.o(i.BlockWrite) refers to displaydriver.o(i.WriteComm) for WriteComm
    displaydriver.o(i.BlockWrite) refers to displaydriver.o(i.WriteData) for WriteData
    displaydriver.o(i.BlockWrite_Test) refers to displaydriver.o(i.WriteComm) for WriteComm
    displaydriver.o(i.BlockWrite_Test) refers to displaydriver.o(i.WriteData) for WriteData
    displaydriver.o(i.DisplayDriver_DrawPic) refers to displaydriver.o(i.WriteComm) for WriteComm
    displaydriver.o(i.DisplayDriver_DrawPic) refers to displaydriver.o(i.WriteData) for WriteData
    displaydriver.o(i.DisplayDriver_DrawPic) refers to displaydriver.o(i.BlockWrite) for BlockWrite
    displaydriver.o(i.DisplayDriver_Init) refers to displaydriver.o(i.LCD_GPIO_Config) for LCD_GPIO_Config
    displaydriver.o(i.DisplayDriver_Init) refers to displaydriver.o(i.LCD_FSMC_Config) for LCD_FSMC_Config
    displaydriver.o(i.DisplayDriver_Init) refers to displaydriver.o(i.Delay) for Delay
    displaydriver.o(i.DisplayDriver_Init) refers to displaydriver.o(i.LCD_Rst) for LCD_Rst
    displaydriver.o(i.DisplayDriver_Init) refers to displaydriver.o(i.WriteComm) for WriteComm
    displaydriver.o(i.DisplayDriver_Init) refers to displaydriver.o(i.WriteData) for WriteData
    displaydriver.o(i.DisplayDriver_Init) refers to stm32f10x_it.o(i.Delay_ms_SW) for Delay_ms_SW
    displaydriver.o(i.DisplayDriver_Init) refers to stm32f10x_gpio.o(i.GPIO_ReadInputDataBit) for GPIO_ReadInputDataBit
    displaydriver.o(i.DisplayDriver_Init) refers to stm32f10x_gpio.o(i.GPIO_SetBits) for GPIO_SetBits
    displaydriver.o(i.DrawPixel) refers to displaydriver.o(i.BlockWrite) for BlockWrite
    displaydriver.o(i.LCD_FSMC_Config) refers to stm32f10x_fsmc.o(i.FSMC_NORSRAMInit) for FSMC_NORSRAMInit
    displaydriver.o(i.LCD_FSMC_Config) refers to stm32f10x_fsmc.o(i.FSMC_NORSRAMCmd) for FSMC_NORSRAMCmd
    displaydriver.o(i.LCD_GPIO_Config) refers to stm32f10x_gpio.o(i.GPIO_Init) for GPIO_Init
    displaydriver.o(i.LCD_GPIO_Config) refers to stm32f10x_gpio.o(i.GPIO_SetBits) for GPIO_SetBits
    displaydriver.o(i.LCD_Rst) refers to displaydriver.o(i.Delay) for Delay
    displaydriver.o(i.Lcd_ColorBox) refers to displaydriver.o(i.BlockWrite) for BlockWrite
    displaydriver.o(i.Lcd_ColorSpot) refers to displaydriver.o(i.BlockWrite_Test) for BlockWrite_Test
    displaydriver.o(i.Lcd_Display_Clear) refers to displaydriver.o(i.BlockWrite) for BlockWrite
    displaydriver.o(i.RCC_Configuration) refers to stm32f10x_rcc.o(i.RCC_AHBPeriphClockCmd) for RCC_AHBPeriphClockCmd
    displaydriver.o(i.RCC_Configuration) refers to stm32f10x_rcc.o(i.RCC_APB2PeriphClockCmd) for RCC_APB2PeriphClockCmd
    displaydriver.o(i.RCC_Configuration) refers to stm32f10x_gpio.o(i.GPIO_PinRemapConfig) for GPIO_PinRemapConfig
    displaydriver.o(i.ReadPixel) refers to displaydriver.o(i.WriteComm) for WriteComm
    displaydriver.o(i.ReadPixel) refers to displaydriver.o(i.WriteData) for WriteData
    displaydriver.o(i.ReadPixel) refers to printf8.o(i.__0printf$8) for __2printf
    font.o(i.DisplayDriver_Clear) refers to displaydriver.o(i.BlockWrite) for BlockWrite
    font.o(i.DisplayDriver_Clear) refers to displaydriver.o(i.Lcd_ColorBox) for Lcd_ColorBox
    font.o(i.DisplayDriver_DrawLine) refers to displaydriver.o(i.BlockWrite) for BlockWrite
    font.o(i.DisplayDriver_DrawLine) refers to displaydriver.o(i.Lcd_ColorSpot) for Lcd_ColorSpot
    font.o(i.DisplayDriver_Text16) refers to displaydriver.o(i.BlockWrite) for BlockWrite
    font.o(i.DisplayDriver_Text16) refers to displaydriver.o(i.Lcd_ColorSpot) for Lcd_ColorSpot
    font.o(i.DisplayDriver_Text16) refers to displaydriver_fontlib.o(.constdata) for asc16
    font.o(i.DisplayDriver_Text16_B) refers to displaydriver.o(i.BlockWrite) for BlockWrite
    font.o(i.DisplayDriver_Text16_B) refers to displaydriver.o(i.Lcd_ColorSpot) for Lcd_ColorSpot
    font.o(i.DisplayDriver_Text16_B) refers to displaydriver_fontlib.o(.constdata) for asc16
    font.o(i.LCD_Display_Clear) refers to displaydriver.o(i.BlockWrite) for BlockWrite
    font.o(i.LCD_Display_Clear) refers to displaydriver.o(i.Lcd_Display_Clear) for Lcd_Display_Clear
    humaninput.o(i.EXTIX_Init) refers to stm32f10x_gpio.o(i.GPIO_EXTILineConfig) for GPIO_EXTILineConfig
    humaninput.o(i.EXTIX_Init) refers to stm32f10x_exti.o(i.EXTI_Init) for EXTI_Init
    humaninput.o(i.EXTIX_Init) refers to misc.o(i.NVIC_Init) for NVIC_Init
    humaninput.o(i.EXTI_Key_Confirm_Disable) refers to stm32f10x_gpio.o(i.GPIO_EXTILineConfig) for GPIO_EXTILineConfig
    humaninput.o(i.EXTI_Key_Confirm_Disable) refers to stm32f10x_exti.o(i.EXTI_Init) for EXTI_Init
    humaninput.o(i.EXTI_Key_Confirm_Enable) refers to stm32f10x_gpio.o(i.GPIO_EXTILineConfig) for GPIO_EXTILineConfig
    humaninput.o(i.EXTI_Key_Confirm_Enable) refers to stm32f10x_exti.o(i.EXTI_Init) for EXTI_Init
    humaninput.o(i.EXTI_Key_Confirm_Enable) refers to misc.o(i.NVIC_Init) for NVIC_Init
    humaninput.o(i.HumanInput_Init) refers to stm32f10x_gpio.o(i.GPIO_Init) for GPIO_Init
    humaninput.o(i.Key_Confirm) refers to humaninput.o(i.EXTI_Key_Confirm_Enable) for EXTI_Key_Confirm_Enable
    humaninput.o(i.Key_Confirm) refers to humaninput.o(i.SystemManage_CheckPowerOff) for SystemManage_CheckPowerOff
    humaninput.o(i.Key_Confirm) refers to stm32f10x_it.o(.data) for Exti_lock
    humaninput.o(i.Key_Confirm) refers to humaninput.o(.data) for key_state_confirm
    humaninput.o(i.Key_Confirm) refers to interface_main.o(.data) for UI_state
    humaninput.o(i.Key_Confirm) refers to main.o(.data) for Power_Open
    humaninput.o(i.Key_Left) refers to humaninput.o(.data) for Interface_Key
    humaninput.o(i.Key_Right) refers to humaninput.o(.data) for Interface_Key
    humaninput.o(i.SystemManage_CheckPowerOff) refers to stm32f10x_gpio.o(i.GPIO_ResetBits) for GPIO_ResetBits
    interface_main.o(i.Battery_Empty_ICO) refers to font.o(i.DisplayDriver_DrawLine) for DisplayDriver_DrawLine
    interface_main.o(i.Battery_Empty_ICO) refers to displaydriver.o(i.Lcd_ColorBox) for Lcd_ColorBox
    interface_main.o(i.Battery_Empty_ICO) refers to main.o(.data) for Display_Time
    interface_main.o(i.Interface_Key_Event) refers to humaninput.o(.data) for Interface_Key
    interface_main.o(i.Interface_Key_Event) refers to interface_main.o(.data) for UI_state
    interface_main.o(i.Interface_Key_Event) refers to interface_result.o(.data) for Page_Flag
    interface_main.o(i.Interface_Main) refers to qrcode.o(i.QRCode_Trigger_Disabled) for QRCode_Trigger_Disabled
    interface_main.o(i.Interface_Main) refers to interface_main.o(i.UI_Draw_Window) for UI_Draw_Window
    interface_main.o(i.Interface_Main) refers to stm32f10x_it.o(.data) for Exti_lock
    interface_main.o(i.Interface_Main) refers to humaninput.o(.data) for key_state_confirm
    interface_main.o(i.Interface_Main) refers to interface_main.o(.data) for UI_WindowBlocks
    interface_main.o(i.Interface_Main_font) refers to interface_main.o(i.UI_Draw_Window_font) for UI_Draw_Window_font
    interface_main.o(i.Interface_Main_font) refers to stm32f10x_it.o(.data) for Exti_lock
    interface_main.o(i.Interface_Main_font) refers to interface_main.o(.data) for UI_WindowBlocks
    interface_main.o(i.Interface_Main_font) refers to humaninput.o(.data) for key_state
    interface_main.o(i.Interface_Process) refers to interface_main.o(.data) for UI_state
    interface_main.o(i.Interface_Process) refers to interface_main.o(.constdata) for UI_stateMachine
    interface_main.o(i.UI_Draw_Block) refers to displaydriver.o(i.Lcd_ColorBox) for Lcd_ColorBox
    interface_main.o(i.UI_Draw_Block) refers to displaydriver.o(i.DisplayDriver_DrawPic) for DisplayDriver_DrawPic
    interface_main.o(i.UI_Draw_Block) refers to font.o(i.DisplayDriver_DrawLine) for DisplayDriver_DrawLine
    interface_main.o(i.UI_Draw_Block) refers to font.o(i.DisplayDriver_Text16_B) for DisplayDriver_Text16_B
    interface_main.o(i.UI_Draw_Block) refers to main.o(.data) for Display_Time
    interface_main.o(i.UI_Draw_Block_font) refers to font.o(i.DisplayDriver_Text16_B) for DisplayDriver_Text16_B
    interface_main.o(i.UI_Draw_Block_font) refers to main.o(.data) for Display_Time
    interface_main.o(i.UI_Draw_Block_font) refers to humaninput.o(.data) for Key_control
    interface_main.o(i.UI_Draw_Status_Bar) refers to systemmanage_rtc.o(i.PCF8563_Read) for PCF8563_Read
    interface_main.o(i.UI_Draw_Status_Bar) refers to printf8.o(i.__0sprintf$8) for __2sprintf
    interface_main.o(i.UI_Draw_Status_Bar) refers to font.o(i.DisplayDriver_Text16_B) for DisplayDriver_Text16_B
    interface_main.o(i.UI_Draw_Status_Bar) refers to systemmanage_rtc.o(.data) for SystemManage_CurrentTime
    interface_main.o(i.UI_Draw_Window) refers to interface_main.o(i.UI_Draw_Block) for UI_Draw_Block
    interface_main.o(i.UI_Draw_Window) refers to interface_main.o(.data) for UI_WindowBlocksAttrArray_Main
    interface_main.o(i.UI_Draw_Window_font) refers to interface_main.o(i.UI_Draw_Block_font) for UI_Draw_Block_font
    interface_main.o(i.UI_Draw_Window_font) refers to humaninput.o(.data) for key_state
    interface_main.o(i.UI_Draw_Window_font) refers to interface_main.o(.data) for UI_WindowBlocksAttrArray_Main_font
    interface_main.o(.constdata) refers to interface_main.o(i.Interface_Main) for Interface_Main
    interface_main.o(.constdata) refers to interface_main.o(i.Interface_Key_Event) for Interface_Key_Event
    interface_main.o(.constdata) refers to interface_main.o(i.Interface_Main_font) for Interface_Main_font
    interface_main.o(.constdata) refers to interface_standard.o(i.Interface_Standard) for Interface_Standard
    interface_main.o(.constdata) refers to interface_quick.o(i.Interface_Quick) for Interface_Quick
    interface_main.o(.constdata) refers to interface_record.o(i.Interface_Record) for Interface_Record
    interface_main.o(.constdata) refers to interface_setting.o(i.Interface_Setting) for Interface_Setting
    interface_main.o(.constdata) refers to interface_start.o(i.Interface_Start) for Interface_Start
    interface_main.o(.constdata) refers to interface_testing.o(i.Interface_Testing) for Interface_Testing
    interface_main.o(.constdata) refers to interface_quick.o(i.Interface_Quick_font) for Interface_Quick_font
    interface_main.o(.constdata) refers to interface_result.o(i.Interface_Result) for Interface_Result
    interface_main.o(.constdata) refers to interface_result_2.o(i.Interface_Result_2) for Interface_Result_2
    interface_main.o(.constdata) refers to interface_insert_cup.o(i.Interface_Insert_Cup) for Interface_Insert_Cup
    interface_main.o(.data) refers to interface_main.o(.constdata) for gImage_PIC_Standard
    interface_main.o(.data) refers to interface_main.o(.conststring) for .conststring
    interface_standard.o(i.Interface_Standard) refers to interface_standard.o(i.UI_Draw_Window_Standard) for UI_Draw_Window_Standard
    interface_standard.o(i.Interface_Standard) refers to main.o(i.Delay_ms) for Delay_ms
    interface_standard.o(i.Interface_Standard) refers to stm32f10x_it.o(.data) for Exti_lock
    interface_standard.o(i.Interface_Standard) refers to interface_start.o(.data) for Cup_Count
    interface_standard.o(i.Interface_Standard) refers to interface_standard.o(.data) for UI_WindowBlocks_Standard
    interface_standard.o(i.Interface_Standard) refers to interface_main.o(.data) for UI_state
    interface_standard.o(i.UI_Draw_Block_Standard) refers to displaydriver.o(i.Lcd_ColorBox) for Lcd_ColorBox
    interface_standard.o(i.UI_Draw_Block_Standard) refers to font.o(i.DisplayDriver_Text16_B) for DisplayDriver_Text16_B
    interface_standard.o(i.UI_Draw_Block_Standard) refers to main.o(.data) for Display_Time
    interface_standard.o(i.UI_Draw_Block_Standard) refers to humaninput.o(.data) for key_state
    interface_standard.o(i.UI_Draw_Window_Standard) refers to interface_standard.o(i.UI_Draw_Block_Standard) for UI_Draw_Block_Standard
    interface_standard.o(i.UI_Draw_Window_Standard) refers to interface_start.o(.data) for Cup_Count
    interface_standard.o(i.UI_Draw_Window_Standard) refers to interface_standard.o(.data) for UI_WindowBlocksAttrArray_Standard
    interface_standard.o(.data) refers to interface_standard.o(.conststring) for .conststring
    interface_quick.o(i.Interface_Quick) refers to interface_quick.o(i.UI_Draw_Window_Quick) for UI_Draw_Window_Quick
    interface_quick.o(i.Interface_Quick) refers to qrcode.o(i.QRCode_Trigger_Enabled) for QRCode_Trigger_Enabled
    interface_quick.o(i.Interface_Quick) refers to humaninput.o(.data) for Key_control
    interface_quick.o(i.Interface_Quick) refers to stm32f10x_it.o(.data) for Exti_lock
    interface_quick.o(i.Interface_Quick) refers to qrcode.o(.data) for QRCode_existed
    interface_quick.o(i.Interface_Quick) refers to interface_quick.o(.data) for UI_WindowBlocks_Quick
    interface_quick.o(i.Interface_Quick) refers to interface_main.o(.data) for UI_state
    interface_quick.o(i.Interface_Quick_font) refers to interface_quick.o(i.UI_Draw_Window_Quick_font) for UI_Draw_Window_Quick_font
    interface_quick.o(i.Interface_Quick_font) refers to main.o(i.Delay_ms) for Delay_ms
    interface_quick.o(i.Interface_Quick_font) refers to interface_quick.o(.data) for UI_WindowBlocks_Quick_font
    interface_quick.o(i.Interface_Quick_font) refers to interface_main.o(.data) for UI_state
    interface_quick.o(i.Interface_Quick_font) refers to stm32f10x_it.o(.data) for Exti_lock
    interface_quick.o(i.UI_Draw_Block_Quick) refers to displaydriver.o(i.Lcd_ColorBox) for Lcd_ColorBox
    interface_quick.o(i.UI_Draw_Block_Quick) refers to font.o(i.DisplayDriver_Text16_B) for DisplayDriver_Text16_B
    interface_quick.o(i.UI_Draw_Block_Quick) refers to displaydriver.o(i.DisplayDriver_DrawPic) for DisplayDriver_DrawPic
    interface_quick.o(i.UI_Draw_Block_Quick) refers to main.o(.data) for Display_Time
    interface_quick.o(i.UI_Draw_Block_Quick) refers to humaninput.o(.data) for key_state
    interface_quick.o(i.UI_Draw_Block_Quick_Font) refers to displaydriver.o(i.Lcd_ColorBox) for Lcd_ColorBox
    interface_quick.o(i.UI_Draw_Block_Quick_Font) refers to font.o(i.DisplayDriver_Text16_B) for DisplayDriver_Text16_B
    interface_quick.o(i.UI_Draw_Block_Quick_Font) refers to main.o(.data) for Display_Time
    interface_quick.o(i.UI_Draw_Block_Quick_Font) refers to humaninput.o(.data) for key_state
    interface_quick.o(i.UI_Draw_Window_Quick) refers to interface_quick.o(i.UI_Draw_Block_Quick) for UI_Draw_Block_Quick
    interface_quick.o(i.UI_Draw_Window_Quick) refers to interface_quick.o(.data) for UI_WindowBlocksAttrArray_Quick
    interface_quick.o(i.UI_Draw_Window_Quick_font) refers to interface_quick.o(i.UI_Draw_Block_Quick_Font) for UI_Draw_Block_Quick_Font
    interface_quick.o(i.UI_Draw_Window_Quick_font) refers to interface_quick.o(.data) for UI_WindowBlocksAttrArray_Quick_font
    interface_quick.o(.data) refers to interface_quick.o(.conststring) for .conststring
    interface_quick.o(.data) refers to interface_main.o(.constdata) for gImage_Left_arrow
    interface_record.o(i.Interface_Record) refers to interface_record.o(i.UI_Draw_Window_Record) for UI_Draw_Window_Record
    interface_record.o(i.Interface_Record) refers to main.o(i.Delay_ms) for Delay_ms
    interface_record.o(i.Interface_Record) refers to stm32f10x_it.o(.data) for Exti_lock
    interface_record.o(i.Interface_Record) refers to interface_record.o(.data) for UI_WindowBlocks_Record
    interface_record.o(i.Interface_Record) refers to interface_main.o(.data) for UI_state
    interface_record.o(i.Interface_Record) refers to humaninput.o(.data) for key_state_confirm
    interface_record.o(i.UI_Draw_Block_Record) refers to displaydriver.o(i.Lcd_ColorBox) for Lcd_ColorBox
    interface_record.o(i.UI_Draw_Block_Record) refers to font.o(i.DisplayDriver_Text16_B) for DisplayDriver_Text16_B
    interface_record.o(i.UI_Draw_Block_Record) refers to font.o(i.DisplayDriver_DrawLine) for DisplayDriver_DrawLine
    interface_record.o(i.UI_Draw_Block_Record) refers to main.o(.data) for Display_Time
    interface_record.o(i.UI_Draw_Window_Record) refers to interface_record.o(i.UI_Draw_Block_Record) for UI_Draw_Block_Record
    interface_record.o(i.UI_Draw_Window_Record) refers to interface_record.o(.data) for UI_WindowBlocksAttrArray_Record
    interface_record.o(i.UI_Draw_Window_Record) refers to humaninput.o(.data) for key_state
    interface_record.o(.data) refers to interface_record.o(.conststring) for .conststring
    interface_setting.o(i.Interface_Setting) refers to interface_setting.o(i.UI_Draw_Window_Setting) for UI_Draw_Window_Setting
    interface_setting.o(i.Interface_Setting) refers to main.o(i.Delay_ms) for Delay_ms
    interface_setting.o(i.Interface_Setting) refers to stm32f10x_it.o(.data) for Exti_lock
    interface_setting.o(i.Interface_Setting) refers to interface_setting.o(.data) for UI_WindowBlocks_Setting
    interface_setting.o(i.Interface_Setting) refers to interface_main.o(.data) for UI_state
    interface_setting.o(i.Interface_Setting) refers to humaninput.o(.data) for key_state_confirm
    interface_setting.o(i.UI_Draw_Block_Setting) refers to displaydriver.o(i.Lcd_ColorBox) for Lcd_ColorBox
    interface_setting.o(i.UI_Draw_Block_Setting) refers to font.o(i.DisplayDriver_Text16_B) for DisplayDriver_Text16_B
    interface_setting.o(i.UI_Draw_Block_Setting) refers to displaydriver.o(i.DisplayDriver_DrawPic) for DisplayDriver_DrawPic
    interface_setting.o(i.UI_Draw_Block_Setting) refers to main.o(.data) for Display_Time
    interface_setting.o(i.UI_Draw_Window_Setting) refers to interface_setting.o(i.UI_Draw_Block_Setting) for UI_Draw_Block_Setting
    interface_setting.o(i.UI_Draw_Window_Setting) refers to interface_setting.o(.data) for UI_WindowBlocksAttrArray_Setting
    interface_setting.o(i.UI_Draw_Window_Setting) refers to humaninput.o(.data) for key_state
    interface_setting.o(.data) refers to interface_setting.o(.conststring) for .conststring
    interface_setting.o(.data) refers to interface_main.o(.constdata) for gImage_PIC_System_Time
    interface_result.o(i.Interface_Result) refers to interface_result.o(i.UI_Draw_Window_Result) for UI_Draw_Window_Result
    interface_result.o(i.Interface_Result) refers to stm32f10x_it.o(.data) for Exti_lock
    interface_result.o(i.Interface_Result) refers to interface_result.o(.data) for Page_Flag
    interface_result.o(i.Interface_Result) refers to humaninput.o(.data) for Interface_Key
    interface_result.o(i.Interface_Result) refers to interface_main.o(.data) for UI_state
    interface_result.o(i.UI_Draw_Window_Result) refers to interface_result.o(i.UI_Draw_block_Result) for UI_Draw_block_Result
    interface_result.o(i.UI_Draw_Window_Result) refers to interface_result.o(.data) for UI_WindowBlocksAttrArray_Result
    interface_result.o(i.UI_Draw_block_Result) refers to displaydriver.o(i.Lcd_ColorBox) for Lcd_ColorBox
    interface_result.o(i.UI_Draw_block_Result) refers to font.o(i.DisplayDriver_Text16_B) for DisplayDriver_Text16_B
    interface_result.o(i.UI_Draw_block_Result) refers to displaydriver.o(i.DisplayDriver_DrawPic) for DisplayDriver_DrawPic
    interface_result.o(i.UI_Draw_block_Result) refers to main.o(.data) for Display_Time
    interface_result.o(i.UI_Draw_block_Result) refers to humaninput.o(.data) for key_state
    interface_result.o(.data) refers to interface_result.o(.conststring) for .conststring
    interface_result.o(.data) refers to interface_main.o(.constdata) for gImage_Right_arrow
    interface_start.o(i.Interface_Start) refers to qrcode.o(i.QRCode_Trigger_Disabled) for QRCode_Trigger_Disabled
    interface_start.o(i.Interface_Start) refers to interface_start.o(i.UI_Draw_Window_Start) for UI_Draw_Window_Start
    interface_start.o(i.Interface_Start) refers to stm32f10x_it.o(.data) for Exti_lock
    interface_start.o(i.Interface_Start) refers to humaninput.o(.data) for Interface_Key
    interface_start.o(i.Interface_Start) refers to interface_start.o(.data) for UI_WindowBlocks_Start
    interface_start.o(i.Interface_Start) refers to interface_main.o(.data) for UI_state
    interface_start.o(i.UI_Draw_Window_Start) refers to interface_start.o(i.UI_Draw_block_Start) for UI_Draw_block_Start
    interface_start.o(i.UI_Draw_Window_Start) refers to interface_start.o(.data) for Cup_Count
    interface_start.o(i.UI_Draw_block_Start) refers to displaydriver.o(i.Lcd_ColorBox) for Lcd_ColorBox
    interface_start.o(i.UI_Draw_block_Start) refers to font.o(i.DisplayDriver_Text16_B) for DisplayDriver_Text16_B
    interface_start.o(i.UI_Draw_block_Start) refers to main.o(.data) for Display_Time
    interface_start.o(i.UI_Draw_block_Start) refers to humaninput.o(.data) for key_state
    interface_start.o(.data) refers to interface_start.o(.conststring) for .conststring
    interface_testing.o(i.Acquisition_Signal) refers to scanmotordriver.o(i.SystemManage_5V_Enabled) for SystemManage_5V_Enabled
    interface_testing.o(i.Acquisition_Signal) refers to rotationmotor.o(i.RotationMotor_Input_StepDrive) for RotationMotor_Input_StepDrive
    interface_testing.o(i.Acquisition_Signal) refers to signalprocess_sample.o(i.SignalSample_SampleStrip) for SignalSample_SampleStrip
    interface_testing.o(i.Acquisition_Signal) refers to main.o(i.Delay_ms) for Delay_ms
    interface_testing.o(i.Acquisition_Signal) refers to displaydriver.o(i.Lcd_ColorBox) for Lcd_ColorBox
    interface_testing.o(i.Acquisition_Signal) refers to scanmotordriver.o(i.SystemManage_5V_Disabled) for SystemManage_5V_Disabled
    interface_testing.o(i.Acquisition_Signal) refers to signalprocess_sample.o(.data) for SignalSample_count
    interface_testing.o(i.Acquisition_Signal) refers to main.o(.data) for Display_Time
    interface_testing.o(i.Get_Start_Postion) refers to scanmotordriver.o(i.SystemManage_5V_Enabled) for SystemManage_5V_Enabled
    interface_testing.o(i.Get_Start_Postion) refers to scanmotordriver.o(i.ScanMotorDriver_Goto_CentrePosition) for ScanMotorDriver_Goto_CentrePosition
    interface_testing.o(i.Get_Start_Postion) refers to signalprocess_sample.o(i.SignalSample_Sample_EnterCriticalArea) for SignalSample_Sample_EnterCriticalArea
    interface_testing.o(i.Get_Start_Postion) refers to main.o(i.Delay_ms) for Delay_ms
    interface_testing.o(i.Get_Start_Postion) refers to rotationmotor.o(i.RotationMotor_Input_StepDrive) for RotationMotor_Input_StepDrive
    interface_testing.o(i.Get_Start_Postion) refers to signalprocess_sample.o(i.SignalProcess_Collecting_Data) for SignalProcess_Collecting_Data
    interface_testing.o(i.Get_Start_Postion) refers to signalprocess_sample.o(i.SignalSample_Sample_Timer_Disabled) for SignalSample_Sample_Timer_Disabled
    interface_testing.o(i.Get_Start_Postion) refers to scanmotordriver.o(i.ScanMotorDriver_Goto_BasePosition) for ScanMotorDriver_Goto_BasePosition
    interface_testing.o(i.Get_Start_Postion) refers to interface_testing.o(i.SignalSample_Moving_Average_Data) for SignalSample_Moving_Average_Data
    interface_testing.o(i.Get_Start_Postion) refers to interface_testing.o(i.Get_sampleBuffer_Max_Value) for Get_sampleBuffer_Max_Value
    interface_testing.o(i.Get_Start_Postion) refers to signalprocess_sample.o(.data) for SignalSample_count
    interface_testing.o(i.Get_Start_Postion) refers to signalprocess_sample.o(.bss) for SignalProcess_sampleBuffer
    interface_testing.o(i.Get_sampleBuffer_Max_Value) refers to signalprocess_sample.o(.bss) for SignalProcess_sampleBuffer
    interface_testing.o(i.Get_sampleBuffer_Max_Value) refers to interface_start.o(.data) for Cup_Count
    interface_testing.o(i.Interface_Testing) refers to interface_testing.o(i.UI_Draw_Window_Testing) for UI_Draw_Window_Testing
    interface_testing.o(i.Interface_Testing) refers to interface_testing.o(i.Get_Start_Postion) for Get_Start_Postion
    interface_testing.o(i.Interface_Testing) refers to scanmotordriver.o(i.SystemManage_5V_Enabled) for SystemManage_5V_Enabled
    interface_testing.o(i.Interface_Testing) refers to rotationmotor.o(i.RotationMotor_Input_StepDrive) for RotationMotor_Input_StepDrive
    interface_testing.o(i.Interface_Testing) refers to scanmotordriver.o(i.SystemManage_5V_Disabled) for SystemManage_5V_Disabled
    interface_testing.o(i.Interface_Testing) refers to interface_testing.o(i.Acquisition_Signal) for Acquisition_Signal
    interface_testing.o(i.Interface_Testing) refers to main.o(i.Delay_ms) for Delay_ms
    interface_testing.o(i.Interface_Testing) refers to stm32f10x_it.o(.data) for Exti_lock
    interface_testing.o(i.Interface_Testing) refers to interface_testing.o(.data) for UI_WindowBlocks_Testing
    interface_testing.o(i.Interface_Testing) refers to interface_start.o(.data) for Cup_Count
    interface_testing.o(i.Interface_Testing) refers to interface_main.o(.data) for UI_state
    interface_testing.o(i.UI_Draw_Window_Testing) refers to interface_testing.o(i.UI_Draw_block_Testing) for UI_Draw_block_Testing
    interface_testing.o(i.UI_Draw_Window_Testing) refers to interface_testing.o(.data) for UI_WindowBlocksAttrArray_Testing
    interface_testing.o(i.UI_Draw_block_Testing) refers to displaydriver.o(i.Lcd_ColorBox) for Lcd_ColorBox
    interface_testing.o(i.UI_Draw_block_Testing) refers to font.o(i.DisplayDriver_Text16_B) for DisplayDriver_Text16_B
    interface_testing.o(i.UI_Draw_block_Testing) refers to main.o(.data) for Display_Time
    interface_testing.o(i.UI_Draw_block_Testing) refers to humaninput.o(.data) for key_state
    interface_testing.o(.data) refers to interface_testing.o(.conststring) for .conststring
    scanmotordriver.o(i.ScanMotorDriver_A1) refers to stm32f10x_gpio.o(i.GPIO_ResetBits) for GPIO_ResetBits
    scanmotordriver.o(i.ScanMotorDriver_A1) refers to stm32f10x_gpio.o(i.GPIO_SetBits) for GPIO_SetBits
    scanmotordriver.o(i.ScanMotorDriver_A2) refers to stm32f10x_gpio.o(i.GPIO_ResetBits) for GPIO_ResetBits
    scanmotordriver.o(i.ScanMotorDriver_A2) refers to stm32f10x_gpio.o(i.GPIO_SetBits) for GPIO_SetBits
    scanmotordriver.o(i.ScanMotorDriver_B1) refers to stm32f10x_gpio.o(i.GPIO_SetBits) for GPIO_SetBits
    scanmotordriver.o(i.ScanMotorDriver_B1) refers to stm32f10x_gpio.o(i.GPIO_ResetBits) for GPIO_ResetBits
    scanmotordriver.o(i.ScanMotorDriver_B2) refers to stm32f10x_gpio.o(i.GPIO_SetBits) for GPIO_SetBits
    scanmotordriver.o(i.ScanMotorDriver_B2) refers to stm32f10x_gpio.o(i.GPIO_ResetBits) for GPIO_ResetBits
    scanmotordriver.o(i.ScanMotorDriver_Control) refers to stm32f10x_gpio.o(i.GPIO_SetBits) for GPIO_SetBits
    scanmotordriver.o(i.ScanMotorDriver_Control) refers to stm32f10x_gpio.o(i.GPIO_ResetBits) for GPIO_ResetBits
    scanmotordriver.o(i.ScanMotorDriver_GPIO_Init) refers to stm32f10x_gpio.o(i.GPIO_Init) for GPIO_Init
    scanmotordriver.o(i.ScanMotorDriver_GPIO_Init) refers to scanmotordriver.o(i.ScanMotorDriver_Control) for ScanMotorDriver_Control
    scanmotordriver.o(i.ScanMotorDriver_Goto_BasePosition) refers to stm32f10x_gpio.o(i.GPIO_ReadInputDataBit) for GPIO_ReadInputDataBit
    scanmotordriver.o(i.ScanMotorDriver_Goto_BasePosition) refers to scanmotordriver.o(i.ScanMotorDriver_Control) for ScanMotorDriver_Control
    scanmotordriver.o(i.ScanMotorDriver_Goto_BasePosition) refers to scanmotordriver.o(i.ScanMotorDriver_Move) for ScanMotorDriver_Move
    scanmotordriver.o(i.ScanMotorDriver_Goto_BasePosition) refers to scanmotordriver.o(.data) for ScanMotorDriver_InBasePosition
    scanmotordriver.o(i.ScanMotorDriver_Goto_CentrePosition) refers to scanmotordriver_positionsensor.o(i.ScanMotorDriver_PositionSensor_Int_Disable) for ScanMotorDriver_PositionSensor_Int_Disable
    scanmotordriver.o(i.ScanMotorDriver_Goto_CentrePosition) refers to scanmotordriver.o(i.ScanMotorDriver_Move) for ScanMotorDriver_Move
    scanmotordriver.o(i.ScanMotorDriver_Goto_CentrePosition) refers to scanmotordriver_positionsensor.o(i.ScanMotorDriver_PositionSensor_Int_Enable) for ScanMotorDriver_PositionSensor_Int_Enable
    scanmotordriver.o(i.ScanMotorDriver_Goto_DetectionPosition) refers to scanmotordriver_positionsensor.o(i.ScanMotorDriver_PositionSensor_Int_Disable) for ScanMotorDriver_PositionSensor_Int_Disable
    scanmotordriver.o(i.ScanMotorDriver_Goto_DetectionPosition) refers to scanmotordriver.o(i.ScanMotorDriver_Move) for ScanMotorDriver_Move
    scanmotordriver.o(i.ScanMotorDriver_Goto_DetectionPosition) refers to scanmotordriver_positionsensor.o(i.ScanMotorDriver_PositionSensor_Int_Enable) for ScanMotorDriver_PositionSensor_Int_Enable
    scanmotordriver.o(i.ScanMotorDriver_Init) refers to scanmotordriver_positionsensor.o(i.ScanMotorDriver_PositionSensor_Init) for ScanMotorDriver_PositionSensor_Init
    scanmotordriver.o(i.ScanMotorDriver_Init) refers to scanmotordriver.o(i.ScanMotorDriver_GPIO_Init) for ScanMotorDriver_GPIO_Init
    scanmotordriver.o(i.ScanMotorDriver_Move) refers to scanmotordriver.o(i.ScanMotorDriver_Control) for ScanMotorDriver_Control
    scanmotordriver.o(i.ScanMotorDriver_Move) refers to scanmotordriver.o(i.ScanMotorDriver_MoveOneStep) for ScanMotorDriver_MoveOneStep
    scanmotordriver.o(i.ScanMotorDriver_Move) refers to stm32f10x_gpio.o(i.GPIO_ReadInputDataBit) for GPIO_ReadInputDataBit
    scanmotordriver.o(i.ScanMotorDriver_MoveOneStep) refers to scanmotordriver.o(i.ScanMotorDriver_A2) for ScanMotorDriver_A2
    scanmotordriver.o(i.ScanMotorDriver_MoveOneStep) refers to scanmotordriver.o(i.ScanMotorDriver_A1) for ScanMotorDriver_A1
    scanmotordriver.o(i.ScanMotorDriver_MoveOneStep) refers to scanmotordriver.o(i.ScanMotorDriver_B2) for ScanMotorDriver_B2
    scanmotordriver.o(i.ScanMotorDriver_MoveOneStep) refers to scanmotordriver.o(i.ScanMotorDriver_B1) for ScanMotorDriver_B1
    scanmotordriver.o(i.ScanMotorDriver_MoveOneStep) refers to scanmotordriver.o(i.Delay_SW) for Delay_SW
    scanmotordriver.o(i.ScanMotorDriver_NVIC_Configuration) refers to misc.o(i.NVIC_PriorityGroupConfig) for NVIC_PriorityGroupConfig
    scanmotordriver.o(i.ScanMotorDriver_NVIC_Configuration) refers to misc.o(i.NVIC_Init) for NVIC_Init
    scanmotordriver.o(i.ScanMotorDriver_SelfCheck_StepDrive) refers to scanmotordriver.o(i.SystemManage_5V_Enabled) for SystemManage_5V_Enabled
    scanmotordriver.o(i.ScanMotorDriver_SelfCheck_StepDrive) refers to scanmotordriver.o(i.ScanMotorDriver_Goto_BasePosition) for ScanMotorDriver_Goto_BasePosition
    scanmotordriver.o(i.ScanMotorDriver_SelfCheck_StepDrive) refers to main.o(i.Delay_ms) for Delay_ms
    scanmotordriver.o(i.ScanMotorDriver_SelfCheck_StepDrive) refers to scanmotordriver.o(i.ScanMotorDriver_Goto_DetectionPosition) for ScanMotorDriver_Goto_DetectionPosition
    scanmotordriver.o(i.ScanMotorDriver_SelfCheck_StepDrive) refers to scanmotordriver.o(i.SystemManage_5V_Disabled) for SystemManage_5V_Disabled
    scanmotordriver.o(i.ScanMotorDriver_SelfCheck_StepDrive) refers to scanmotordriver.o(.data) for Check_Count
    scanmotordriver.o(i.ScanMotorDriver_StartDetection) refers to scanmotordriver.o(i.ScanMotorDriver_Goto_BasePosition) for ScanMotorDriver_Goto_BasePosition
    scanmotordriver.o(i.ScanMotorDriver_StartDetection) refers to main.o(i.Delay_ms) for Delay_ms
    scanmotordriver.o(i.ScanMotorDriver_StartDetection) refers to scanmotordriver.o(i.ScanMotorDriver_Goto_DetectionPosition) for ScanMotorDriver_Goto_DetectionPosition
    scanmotordriver.o(i.SystemManage_5V_Disabled) refers to stm32f10x_gpio.o(i.GPIO_ResetBits) for GPIO_ResetBits
    scanmotordriver.o(i.SystemManage_5V_Enabled) refers to stm32f10x_gpio.o(i.GPIO_SetBits) for GPIO_SetBits
    scanmotordriver_positionsensor.o(i.ScanMotorDriver_PositionSensor_Init) refers to misc.o(i.NVIC_PriorityGroupConfig) for NVIC_PriorityGroupConfig
    scanmotordriver_positionsensor.o(i.ScanMotorDriver_PositionSensor_Init) refers to misc.o(i.NVIC_Init) for NVIC_Init
    scanmotordriver_positionsensor.o(i.ScanMotorDriver_PositionSensor_Init) refers to stm32f10x_gpio.o(i.GPIO_EXTILineConfig) for GPIO_EXTILineConfig
    scanmotordriver_positionsensor.o(i.ScanMotorDriver_PositionSensor_Init) refers to stm32f10x_exti.o(i.EXTI_Init) for EXTI_Init
    scanmotordriver_positionsensor.o(i.ScanMotorDriver_PositionSensor_Init) refers to stm32f10x_gpio.o(i.GPIO_Init) for GPIO_Init
    scanmotordriver_positionsensor.o(i.ScanMotorDriver_PositionSensor_Int_Disable) refers to stm32f10x_exti.o(i.EXTI_Init) for EXTI_Init
    scanmotordriver_positionsensor.o(i.ScanMotorDriver_PositionSensor_Int_Enable) refers to stm32f10x_exti.o(i.EXTI_Init) for EXTI_Init
    rotationmotordriver_positionsensor.o(i.RotaMotorDriver_PositionSensor_Init) refers to misc.o(i.NVIC_PriorityGroupConfig) for NVIC_PriorityGroupConfig
    rotationmotordriver_positionsensor.o(i.RotaMotorDriver_PositionSensor_Init) refers to misc.o(i.NVIC_Init) for NVIC_Init
    rotationmotordriver_positionsensor.o(i.RotaMotorDriver_PositionSensor_Init) refers to stm32f10x_gpio.o(i.GPIO_EXTILineConfig) for GPIO_EXTILineConfig
    rotationmotordriver_positionsensor.o(i.RotaMotorDriver_PositionSensor_Init) refers to stm32f10x_exti.o(i.EXTI_Init) for EXTI_Init
    rotationmotordriver_positionsensor.o(i.RotaMotorDriver_PositionSensor_Init) refers to stm32f10x_gpio.o(i.GPIO_Init) for GPIO_Init
    rotationmotordriver_positionsensor.o(i.RotaMotorDriver_PositionSensor_Int_Disable) refers to stm32f10x_exti.o(i.EXTI_Init) for EXTI_Init
    rotationmotordriver_positionsensor.o(i.RotaMotorDriver_PositionSensor_Int_Enable) refers to stm32f10x_exti.o(i.EXTI_Init) for EXTI_Init
    common.o(i.Calc4BitsCRC) refers to common.o(.constdata) for crcTable
    common.o(i.Common_CalculateCRC) refers to common.o(i.Calc4BitsCRC) for Calc4BitsCRC
    common.o(i.Common_EXTI_Init) refers to stm32f10x_gpio.o(i.GPIO_Init) for GPIO_Init
    common.o(i.Common_EXTI_Init) refers to stm32f10x_gpio.o(i.GPIO_EXTILineConfig) for GPIO_EXTILineConfig
    common.o(i.Common_EXTI_Init) refers to stm32f10x_exti.o(i.EXTI_Init) for EXTI_Init
    common.o(i.Common_EXTI_Init) refers to stm32f10x_exti.o(i.EXTI_ClearITPendingBit) for EXTI_ClearITPendingBit
    common.o(i.Common_EXTI_Init) refers to misc.o(i.NVIC_Init) for NVIC_Init
    qrcode.o(i.QRCode_GPIO_Init) refers to stm32f10x_gpio.o(i.GPIO_Init) for GPIO_Init
    qrcode.o(i.QRCode_GPIO_Init) refers to qrcode.o(i.QRCode_Trigger_Disabled) for QRCode_Trigger_Disabled
    qrcode.o(i.QRCode_Identify) refers to common.o(i.Common_CalculateCRC) for Common_CalculateCRC
    qrcode.o(i.QRCode_Identify) refers to qrcode.o(.data) for QRCode_count
    qrcode.o(i.QRCode_Identify) refers to qrcode.o(.bss) for QRCode_Buffer
    qrcode.o(i.QRCode_Init) refers to qrcode.o(i.QRCode_GPIO_Init) for QRCode_GPIO_Init
    qrcode.o(i.QRCode_Init) refers to qrcode.o(i.QRCode_Uart_Init) for QRCode_Uart_Init
    qrcode.o(i.QRCode_Received) refers to qrcode.o(i.QRCode_Identify) for QRCode_Identify
    qrcode.o(i.QRCode_Received) refers to font.o(i.DisplayDriver_Text16_B) for DisplayDriver_Text16_B
    qrcode.o(i.QRCode_Received) refers to qrcode.o(.data) for QRCode_received
    qrcode.o(i.QRCode_Received) refers to interface_main.o(.data) for UI_state
    qrcode.o(i.QRCode_Restart) refers to qrcode.o(i.QRCode_Trigger_Disabled) for QRCode_Trigger_Disabled
    qrcode.o(i.QRCode_Restart) refers to stm32f10x_it.o(i.Delay_ms_SW) for Delay_ms_SW
    qrcode.o(i.QRCode_Restart) refers to qrcode.o(i.QRCode_Trigger_Enabled) for QRCode_Trigger_Enabled
    qrcode.o(i.QRCode_Trigger_Disabled) refers to stm32f10x_gpio.o(i.GPIO_SetBits) for GPIO_SetBits
    qrcode.o(i.QRCode_Trigger_Enabled) refers to stm32f10x_gpio.o(i.GPIO_ResetBits) for GPIO_ResetBits
    qrcode.o(i.QRCode_Uart_Config) refers to stm32f10x_usart.o(i.USART_Init) for USART_Init
    qrcode.o(i.QRCode_Uart_Config) refers to stm32f10x_usart.o(i.USART_ITConfig) for USART_ITConfig
    qrcode.o(i.QRCode_Uart_Config) refers to stm32f10x_usart.o(i.USART_Cmd) for USART_Cmd
    qrcode.o(i.QRCode_Uart_Config) refers to stm32f10x_usart.o(i.USART_ClearFlag) for USART_ClearFlag
    qrcode.o(i.QRCode_Uart_GPIO_Init) refers to stm32f10x_gpio.o(i.GPIO_Init) for GPIO_Init
    qrcode.o(i.QRCode_Uart_Init) refers to stm32f10x_rcc.o(i.RCC_APB2PeriphClockCmd) for RCC_APB2PeriphClockCmd
    qrcode.o(i.QRCode_Uart_Init) refers to qrcode.o(i.QRCode_Uart_GPIO_Init) for QRCode_Uart_GPIO_Init
    qrcode.o(i.QRCode_Uart_Init) refers to qrcode.o(i.QRCode_Uart_NVIC_Configuration) for QRCode_Uart_NVIC_Configuration
    qrcode.o(i.QRCode_Uart_Init) refers to qrcode.o(i.QRCode_Uart_Config) for QRCode_Uart_Config
    qrcode.o(i.QRCode_Uart_NVIC_Configuration) refers to misc.o(i.NVIC_Init) for NVIC_Init
    qrcode.o(i.USART1_IRQHandler) refers to stm32f10x_usart.o(i.USART_GetITStatus) for USART_GetITStatus
    qrcode.o(i.USART1_IRQHandler) refers to stm32f10x_usart.o(i.USART_ReceiveData) for USART_ReceiveData
    qrcode.o(i.USART1_IRQHandler) refers to stm32f10x_usart.o(i.USART_ClearITPendingBit) for USART_ClearITPendingBit
    qrcode.o(i.USART1_IRQHandler) refers to qrcode.o(.data) for QRCode_count
    qrcode.o(i.USART1_IRQHandler) refers to qrcode.o(.bss) for QRCode_Buffer
    systemmanage_rtc.o(i.I2C_Ack) refers to stm32f10x_gpio.o(i.GPIO_ResetBits) for GPIO_ResetBits
    systemmanage_rtc.o(i.I2C_Ack) refers to systemmanage_rtc.o(i.Delay_us_SW) for Delay_us_SW
    systemmanage_rtc.o(i.I2C_Ack) refers to stm32f10x_gpio.o(i.GPIO_SetBits) for GPIO_SetBits
    systemmanage_rtc.o(i.I2C_NoAck) refers to stm32f10x_gpio.o(i.GPIO_ResetBits) for GPIO_ResetBits
    systemmanage_rtc.o(i.I2C_NoAck) refers to systemmanage_rtc.o(i.Delay_us_SW) for Delay_us_SW
    systemmanage_rtc.o(i.I2C_NoAck) refers to stm32f10x_gpio.o(i.GPIO_SetBits) for GPIO_SetBits
    systemmanage_rtc.o(i.IIC_ReadByte) refers to stm32f10x_gpio.o(i.GPIO_SetBits) for GPIO_SetBits
    systemmanage_rtc.o(i.IIC_ReadByte) refers to stm32f10x_gpio.o(i.GPIO_ResetBits) for GPIO_ResetBits
    systemmanage_rtc.o(i.IIC_ReadByte) refers to systemmanage_rtc.o(i.Delay_us_SW) for Delay_us_SW
    systemmanage_rtc.o(i.IIC_ReadByte) refers to stm32f10x_gpio.o(i.GPIO_ReadInputDataBit) for GPIO_ReadInputDataBit
    systemmanage_rtc.o(i.IIC_Start) refers to stm32f10x_gpio.o(i.GPIO_SetBits) for GPIO_SetBits
    systemmanage_rtc.o(i.IIC_Start) refers to systemmanage_rtc.o(i.Delay_us_SW) for Delay_us_SW
    systemmanage_rtc.o(i.IIC_Start) refers to stm32f10x_gpio.o(i.GPIO_ResetBits) for GPIO_ResetBits
    systemmanage_rtc.o(i.IIC_Stop) refers to stm32f10x_gpio.o(i.GPIO_ResetBits) for GPIO_ResetBits
    systemmanage_rtc.o(i.IIC_Stop) refers to systemmanage_rtc.o(i.Delay_us_SW) for Delay_us_SW
    systemmanage_rtc.o(i.IIC_Stop) refers to stm32f10x_gpio.o(i.GPIO_SetBits) for GPIO_SetBits
    systemmanage_rtc.o(i.IIC_WaitAck) refers to stm32f10x_gpio.o(i.GPIO_ResetBits) for GPIO_ResetBits
    systemmanage_rtc.o(i.IIC_WaitAck) refers to stm32f10x_gpio.o(i.GPIO_SetBits) for GPIO_SetBits
    systemmanage_rtc.o(i.IIC_WaitAck) refers to systemmanage_rtc.o(i.Delay_us_SW) for Delay_us_SW
    systemmanage_rtc.o(i.IIC_WaitAck) refers to stm32f10x_gpio.o(i.GPIO_ReadInputDataBit) for GPIO_ReadInputDataBit
    systemmanage_rtc.o(i.IIC_WriteByte) refers to stm32f10x_gpio.o(i.GPIO_ResetBits) for GPIO_ResetBits
    systemmanage_rtc.o(i.IIC_WriteByte) refers to systemmanage_rtc.o(i.Delay_us_SW) for Delay_us_SW
    systemmanage_rtc.o(i.IIC_WriteByte) refers to stm32f10x_gpio.o(i.GPIO_SetBits) for GPIO_SetBits
    systemmanage_rtc.o(i.PCF8563_Init) refers to stm32f10x_rcc.o(i.RCC_APB2PeriphClockCmd) for RCC_APB2PeriphClockCmd
    systemmanage_rtc.o(i.PCF8563_Init) refers to stm32f10x_gpio.o(i.GPIO_Init) for GPIO_Init
    systemmanage_rtc.o(i.PCF8563_Init) refers to stm32f10x_gpio.o(i.GPIO_SetBits) for GPIO_SetBits
    systemmanage_rtc.o(i.PCF8563_ReaDAdress) refers to systemmanage_rtc.o(i.IIC_Start) for IIC_Start
    systemmanage_rtc.o(i.PCF8563_ReaDAdress) refers to systemmanage_rtc.o(i.IIC_WriteByte) for IIC_WriteByte
    systemmanage_rtc.o(i.PCF8563_ReaDAdress) refers to systemmanage_rtc.o(i.IIC_WaitAck) for IIC_WaitAck
    systemmanage_rtc.o(i.PCF8563_ReaDAdress) refers to systemmanage_rtc.o(i.IIC_ReadByte) for IIC_ReadByte
    systemmanage_rtc.o(i.PCF8563_ReaDAdress) refers to systemmanage_rtc.o(i.IIC_Stop) for IIC_Stop
    systemmanage_rtc.o(i.PCF8563_Read) refers to systemmanage_rtc.o(i.IIC_Start) for IIC_Start
    systemmanage_rtc.o(i.PCF8563_Read) refers to systemmanage_rtc.o(i.IIC_WriteByte) for IIC_WriteByte
    systemmanage_rtc.o(i.PCF8563_Read) refers to systemmanage_rtc.o(i.IIC_WaitAck) for IIC_WaitAck
    systemmanage_rtc.o(i.PCF8563_Read) refers to systemmanage_rtc.o(i.IIC_ReadByte) for IIC_ReadByte
    systemmanage_rtc.o(i.PCF8563_Read) refers to systemmanage_rtc.o(i.I2C_Ack) for I2C_Ack
    systemmanage_rtc.o(i.PCF8563_Read) refers to systemmanage_rtc.o(i.I2C_NoAck) for I2C_NoAck
    systemmanage_rtc.o(i.PCF8563_Read) refers to systemmanage_rtc.o(i.IIC_Stop) for IIC_Stop
    systemmanage_rtc.o(i.PCF8563_Set) refers to systemmanage_rtc.o(i.PCF8563_WriteAdress) for PCF8563_WriteAdress
    systemmanage_rtc.o(i.PCF8563_WriteAdress) refers to systemmanage_rtc.o(i.IIC_Start) for IIC_Start
    systemmanage_rtc.o(i.PCF8563_WriteAdress) refers to systemmanage_rtc.o(i.IIC_WriteByte) for IIC_WriteByte
    systemmanage_rtc.o(i.PCF8563_WriteAdress) refers to systemmanage_rtc.o(i.IIC_WaitAck) for IIC_WaitAck
    systemmanage_rtc.o(i.PCF8563_WriteAdress) refers to systemmanage_rtc.o(i.IIC_Stop) for IIC_Stop
    systemmanage_rtc.o(i.SystemManage_RTC_Get) refers to systemmanage_rtc.o(i.PCF8563_Read) for PCF8563_Read
    systemmanage_rtc.o(i.SystemManage_RTC_Get) refers to systemmanage_rtc.o(.data) for SystemManage_CurrentTime
    systemmanage_rtc.o(i.SystemManage_RTC_Set) refers to systemmanage_rtc.o(i.PCF8563_Set) for PCF8563_Set
    signalprocess_sample.o(i.SignalProcess_Collecting_Data) refers to signalprocess_sample.o(i.SignalSample_Sample_Sampling) for SignalSample_Sample_Sampling
    signalprocess_sample.o(i.SignalSample_Clear_Buffer) refers to signalprocess_sample.o(.bss) for SignalProcess_sampleBuffer
    signalprocess_sample.o(i.SignalSample_GetVbat) refers to signalprocess_sample.o(i.SignalSample_Sample_Vbat) for SignalSample_Sample_Vbat
    signalprocess_sample.o(i.SignalSample_GetVbat) refers to ffltui.o(.text) for __aeabi_ui2f
    signalprocess_sample.o(i.SignalSample_GetVbat) refers to fmul.o(.text) for __aeabi_fmul
    signalprocess_sample.o(i.SignalSample_GetVbat) refers to fadd.o(.text) for __aeabi_fadd
    signalprocess_sample.o(i.SignalSample_GetVbat) refers to f2d.o(.text) for __aeabi_f2d
    signalprocess_sample.o(i.SignalSample_GetVbat) refers to cdrcmple.o(.text) for __aeabi_cdrcmple
    signalprocess_sample.o(i.SignalSample_GetVbat) refers to cdcmple.o(.text) for __aeabi_cdcmple
    signalprocess_sample.o(i.SignalSample_GetVbat) refers to dadd.o(.text) for __aeabi_dsub
    signalprocess_sample.o(i.SignalSample_GetVbat) refers to dmul.o(.text) for __aeabi_dmul
    signalprocess_sample.o(i.SignalSample_GetVbat) refers to ddiv.o(.text) for __aeabi_ddiv
    signalprocess_sample.o(i.SignalSample_GetVbat) refers to dfixui.o(.text) for __aeabi_d2uiz
    signalprocess_sample.o(i.SignalSample_SampleStrip) refers to scanmotordriver.o(i.SystemManage_5V_Enabled) for SystemManage_5V_Enabled
    signalprocess_sample.o(i.SignalSample_SampleStrip) refers to signalprocess_sample.o(i.SignalSample_Sample_EnterCriticalArea) for SignalSample_Sample_EnterCriticalArea
    signalprocess_sample.o(i.SignalSample_SampleStrip) refers to signalprocess_sample.o(i.SignalSample_Sample_Timer_Init) for SignalSample_Sample_Timer_Init
    signalprocess_sample.o(i.SignalSample_SampleStrip) refers to stm32f10x_gpio.o(i.GPIO_ReadInputDataBit) for GPIO_ReadInputDataBit
    signalprocess_sample.o(i.SignalSample_SampleStrip) refers to scanmotordriver.o(i.ScanMotorDriver_Move) for ScanMotorDriver_Move
    signalprocess_sample.o(i.SignalSample_SampleStrip) refers to signalprocess_sample.o(i.SignalProcess_Collecting_Data) for SignalProcess_Collecting_Data
    signalprocess_sample.o(i.SignalSample_SampleStrip) refers to scanmotordriver.o(i.ScanMotorDriver_Goto_BasePosition) for ScanMotorDriver_Goto_BasePosition
    signalprocess_sample.o(i.SignalSample_SampleStrip) refers to signalprocess_sample.o(i.SignalSample_Sample_Timer_Disabled) for SignalSample_Sample_Timer_Disabled
    signalprocess_sample.o(i.SignalSample_SampleStrip) refers to signalprocess_sample.o(i.SignalSample_Sample_ExitCriticalArea) for SignalSample_Sample_ExitCriticalArea
    signalprocess_sample.o(i.SignalSample_SampleStrip) refers to scanmotordriver.o(i.SystemManage_5V_Disabled) for SystemManage_5V_Disabled
    signalprocess_sample.o(i.SignalSample_SampleStrip) refers to signalprocess_sample.o(i.SignalSample_OutputSamples) for SignalSample_OutputSamples
    signalprocess_sample.o(i.SignalSample_SampleStrip) refers to font.o(i.DisplayDriver_Text16) for DisplayDriver_Text16
    signalprocess_sample.o(i.SignalSample_SampleStrip) refers to main.o(i.Delay_ms) for Delay_ms
    signalprocess_sample.o(i.SignalSample_SampleStrip) refers to signalprocess_sample.o(.data) for SignalSample_moveThenSample
    signalprocess_sample.o(i.SignalSample_SampleStrip) refers to signalprocess_sample.o(.bss) for SignalProcess_sampleBuffer
    signalprocess_sample.o(i.SignalSample_Sample_AD84XX_Init) refers to stm32f10x_gpio.o(i.GPIO_Init) for GPIO_Init
    signalprocess_sample.o(i.SignalSample_Sample_AD84XX_Init) refers to stm32f10x_rcc.o(i.RCC_APB2PeriphClockCmd) for RCC_APB2PeriphClockCmd
    signalprocess_sample.o(i.SignalSample_Sample_AD84XX_Init) refers to stm32f10x_spi.o(i.SPI_Init) for SPI_Init
    signalprocess_sample.o(i.SignalSample_Sample_AD84XX_Init) refers to stm32f10x_spi.o(i.SPI_Cmd) for SPI_Cmd
    signalprocess_sample.o(i.SignalSample_Sample_AD84XX_Init) refers to stm32f10x_gpio.o(i.GPIO_SetBits) for GPIO_SetBits
    signalprocess_sample.o(i.SignalSample_Sample_AD84XX_SendByte) refers to stm32f10x_spi.o(i.SPI_I2S_GetFlagStatus) for SPI_I2S_GetFlagStatus
    signalprocess_sample.o(i.SignalSample_Sample_AD84XX_SendByte) refers to stm32f10x_spi.o(i.SPI_I2S_SendData) for SPI_I2S_SendData
    signalprocess_sample.o(i.SignalSample_Sample_ADC_Init) refers to stm32f10x_rcc.o(i.RCC_APB2PeriphClockCmd) for RCC_APB2PeriphClockCmd
    signalprocess_sample.o(i.SignalSample_Sample_ADC_Init) refers to stm32f10x_gpio.o(i.GPIO_Init) for GPIO_Init
    signalprocess_sample.o(i.SignalSample_Sample_ADC_Init) refers to stm32f10x_adc.o(i.ADC_Init) for ADC_Init
    signalprocess_sample.o(i.SignalSample_Sample_ADC_Init) refers to stm32f10x_adc.o(i.ADC_RegularChannelConfig) for ADC_RegularChannelConfig
    signalprocess_sample.o(i.SignalSample_Sample_ADC_Init) refers to stm32f10x_adc.o(i.ADC_Cmd) for ADC_Cmd
    signalprocess_sample.o(i.SignalSample_Sample_ADC_Init) refers to stm32f10x_adc.o(i.ADC_ResetCalibration) for ADC_ResetCalibration
    signalprocess_sample.o(i.SignalSample_Sample_ADC_Init) refers to stm32f10x_adc.o(i.ADC_GetResetCalibrationStatus) for ADC_GetResetCalibrationStatus
    signalprocess_sample.o(i.SignalSample_Sample_ADC_Init) refers to stm32f10x_adc.o(i.ADC_StartCalibration) for ADC_StartCalibration
    signalprocess_sample.o(i.SignalSample_Sample_ADC_Init) refers to stm32f10x_adc.o(i.ADC_GetCalibrationStatus) for ADC_GetCalibrationStatus
    signalprocess_sample.o(i.SignalSample_Sample_ADC_Init) refers to stm32f10x_adc.o(i.ADC_SoftwareStartConvCmd) for ADC_SoftwareStartConvCmd
    signalprocess_sample.o(i.SignalSample_Sample_EnterCriticalArea) refers to signalprocess_sample.o(i.SignalSample_Sample_Set_LED) for SignalSample_Sample_Set_LED
    signalprocess_sample.o(i.SignalSample_Sample_EnterCriticalArea) refers to signalprocess_sample.o(.data) for SignalSample_count
    signalprocess_sample.o(i.SignalSample_Sample_ExitCriticalArea) refers to signalprocess_sample.o(i.SignalSample_Sample_Set_LED) for SignalSample_Sample_Set_LED
    signalprocess_sample.o(i.SignalSample_Sample_Init) refers to signalprocess_sample.o(i.SignalSample_Sample_Strip_Sensor_Init) for SignalSample_Sample_Strip_Sensor_Init
    signalprocess_sample.o(i.SignalSample_Sample_Init) refers to signalprocess_sample.o(i.SignalSample_Sample_LED_Init) for SignalSample_Sample_LED_Init
    signalprocess_sample.o(i.SignalSample_Sample_Init) refers to signalprocess_sample.o(i.SignalSample_Sample_AD84XX_Init) for SignalSample_Sample_AD84XX_Init
    signalprocess_sample.o(i.SignalSample_Sample_Init) refers to signalprocess_sample.o(i.SignalSample_Sample_SetResistor) for SignalSample_Sample_SetResistor
    signalprocess_sample.o(i.SignalSample_Sample_Init) refers to signalprocess_sample.o(i.SignalSample_Sample_Timer_Init) for SignalSample_Sample_Timer_Init
    signalprocess_sample.o(i.SignalSample_Sample_Init) refers to signalprocess_sample.o(i.SignalSample_Sample_ADC_Init) for SignalSample_Sample_ADC_Init
    signalprocess_sample.o(i.SignalSample_Sample_IsStripInserted) refers to stm32f10x_gpio.o(i.GPIO_ReadInputDataBit) for GPIO_ReadInputDataBit
    signalprocess_sample.o(i.SignalSample_Sample_LED_Init) refers to stm32f10x_gpio.o(i.GPIO_Init) for GPIO_Init
    signalprocess_sample.o(i.SignalSample_Sample_LED_Init) refers to signalprocess_sample.o(i.SignalSample_Sample_Set_LED) for SignalSample_Sample_Set_LED
    signalprocess_sample.o(i.SignalSample_Sample_Sampling) refers to signalprocess_sample.o(i.SignalSample_Sample_Start) for SignalSample_Sample_Start
    signalprocess_sample.o(i.SignalSample_Sample_Sampling) refers to stm32f10x_adc.o(i.ADC_SoftwareStartConvCmd) for ADC_SoftwareStartConvCmd
    signalprocess_sample.o(i.SignalSample_Sample_Sampling) refers to stm32f10x_adc.o(i.ADC_GetFlagStatus) for ADC_GetFlagStatus
    signalprocess_sample.o(i.SignalSample_Sample_Sampling) refers to stm32f10x_adc.o(i.ADC_GetConversionValue) for ADC_GetConversionValue
    signalprocess_sample.o(i.SignalSample_Sample_Sampling) refers to signalprocess_sample.o(i.SignalSample_Sample_Stop) for SignalSample_Sample_Stop
    signalprocess_sample.o(i.SignalSample_Sample_SetResistor) refers to signalprocess_sample.o(i.SignalSample_SetResistor) for SignalSample_SetResistor
    signalprocess_sample.o(i.SignalSample_Sample_SetResistor) refers to signalprocess_sample.o(.data) for SignalSample_resistorValue
    signalprocess_sample.o(i.SignalSample_Sample_Set_LED) refers to stm32f10x_gpio.o(i.GPIO_SetBits) for GPIO_SetBits
    signalprocess_sample.o(i.SignalSample_Sample_Set_LED) refers to stm32f10x_gpio.o(i.GPIO_ResetBits) for GPIO_ResetBits
    signalprocess_sample.o(i.SignalSample_Sample_Start) refers to stm32f10x_adc.o(i.ADC_RegularChannelConfig) for ADC_RegularChannelConfig
    signalprocess_sample.o(i.SignalSample_Sample_Stop) refers to stm32f10x_adc.o(i.ADC_SoftwareStartConvCmd) for ADC_SoftwareStartConvCmd
    signalprocess_sample.o(i.SignalSample_Sample_Strip_Sensor_Init) refers to common.o(i.Common_EXTI_Init) for Common_EXTI_Init
    signalprocess_sample.o(i.SignalSample_Sample_Strip_Sensor_Int) refers to stm32f10x_exti.o(i.EXTI_Init) for EXTI_Init
    signalprocess_sample.o(i.SignalSample_Sample_Timer_Disabled) refers to signalprocess_sample.o(i.SignalSample_Sample_Timer_Int) for SignalSample_Sample_Timer_Int
    signalprocess_sample.o(i.SignalSample_Sample_Timer_Disabled) refers to stm32f10x_tim.o(i.TIM_Cmd) for TIM_Cmd
    signalprocess_sample.o(i.SignalSample_Sample_Timer_Init) refers to stm32f10x_rcc.o(i.RCC_APB1PeriphClockCmd) for RCC_APB1PeriphClockCmd
    signalprocess_sample.o(i.SignalSample_Sample_Timer_Init) refers to stm32f10x_tim.o(i.TIM_TimeBaseInit) for TIM_TimeBaseInit
    signalprocess_sample.o(i.SignalSample_Sample_Timer_Init) refers to misc.o(i.NVIC_Init) for NVIC_Init
    signalprocess_sample.o(i.SignalSample_Sample_Timer_Init) refers to stm32f10x_tim.o(i.TIM_Cmd) for TIM_Cmd
    signalprocess_sample.o(i.SignalSample_Sample_Timer_Init) refers to signalprocess_sample.o(i.SignalSample_Sample_Timer_Int) for SignalSample_Sample_Timer_Int
    signalprocess_sample.o(i.SignalSample_Sample_Timer_Int) refers to stm32f10x_tim.o(i.TIM_ITConfig) for TIM_ITConfig
    signalprocess_sample.o(i.SignalSample_Sample_Vbat) refers to signalprocess_sample.o(i.SignalSample_Sample_Sampling) for SignalSample_Sample_Sampling
    signalprocess_sample.o(i.SignalSample_SetResistor) refers to stm32f10x_gpio.o(i.GPIO_ResetBits) for GPIO_ResetBits
    signalprocess_sample.o(i.SignalSample_SetResistor) refers to main.o(i.Delay_ms) for Delay_ms
    signalprocess_sample.o(i.SignalSample_SetResistor) refers to signalprocess_sample.o(i.SignalSample_Sample_AD84XX_SendByte) for SignalSample_Sample_AD84XX_SendByte
    signalprocess_sample.o(i.SignalSample_SetResistor) refers to stm32f10x_gpio.o(i.GPIO_SetBits) for GPIO_SetBits
    interface_result_2.o(i.Interface_Result_2) refers to interface_result_2.o(i.UI_Draw_Window_Result_2) for UI_Draw_Window_Result_2
    interface_result_2.o(i.Interface_Result_2) refers to interface_result.o(.data) for Page_Flag
    interface_result_2.o(i.Interface_Result_2) refers to stm32f10x_it.o(.data) for Exti_lock
    interface_result_2.o(i.Interface_Result_2) refers to humaninput.o(.data) for Interface_Key
    interface_result_2.o(i.Interface_Result_2) refers to interface_result_2.o(.data) for UI_WindowBlocks_Result_2
    interface_result_2.o(i.Interface_Result_2) refers to interface_main.o(.data) for UI_state
    interface_result_2.o(i.UI_Draw_Window_Result_2) refers to interface_result_2.o(i.UI_Draw_block_Result_2) for UI_Draw_block_Result_2
    interface_result_2.o(i.UI_Draw_Window_Result_2) refers to interface_result_2.o(.data) for UI_WindowBlocksAttrArray_Result_2
    interface_result_2.o(i.UI_Draw_block_Result_2) refers to displaydriver.o(i.Lcd_ColorBox) for Lcd_ColorBox
    interface_result_2.o(i.UI_Draw_block_Result_2) refers to font.o(i.DisplayDriver_Text16_B) for DisplayDriver_Text16_B
    interface_result_2.o(i.UI_Draw_block_Result_2) refers to displaydriver.o(i.DisplayDriver_DrawPic) for DisplayDriver_DrawPic
    interface_result_2.o(i.UI_Draw_block_Result_2) refers to main.o(.data) for Display_Time
    interface_result_2.o(i.UI_Draw_block_Result_2) refers to humaninput.o(.data) for key_state
    interface_result_2.o(.data) refers to interface_result_2.o(.conststring) for .conststring
    interface_result_2.o(.data) refers to interface_main.o(.constdata) for gImage_Left_arrow
    interface_insert_cup.o(i.Interface_Insert_Cup) refers to interface_insert_cup.o(i.UI_Draw_Window_Insert_Cup) for UI_Draw_Window_Insert_Cup
    interface_insert_cup.o(i.Interface_Insert_Cup) refers to humaninput.o(.data) for Interface_Key
    interface_insert_cup.o(i.Interface_Insert_Cup) refers to stm32f10x_it.o(.data) for Exti_lock
    interface_insert_cup.o(i.Interface_Insert_Cup) refers to interface_insert_cup.o(.data) for UI_WindowBlocks_Insert_Cup
    interface_insert_cup.o(i.Interface_Insert_Cup) refers to interface_main.o(.data) for UI_state
    interface_insert_cup.o(i.UI_Draw_Block_Insert_Cup) refers to displaydriver.o(i.Lcd_ColorBox) for Lcd_ColorBox
    interface_insert_cup.o(i.UI_Draw_Block_Insert_Cup) refers to font.o(i.DisplayDriver_Text16_B) for DisplayDriver_Text16_B
    interface_insert_cup.o(i.UI_Draw_Block_Insert_Cup) refers to main.o(.data) for Display_Time
    interface_insert_cup.o(i.UI_Draw_Block_Insert_Cup) refers to humaninput.o(.data) for key_state
    interface_insert_cup.o(i.UI_Draw_Window_Insert_Cup) refers to interface_insert_cup.o(i.UI_Draw_Block_Insert_Cup) for UI_Draw_Block_Insert_Cup
    interface_insert_cup.o(i.UI_Draw_Window_Insert_Cup) refers to interface_insert_cup.o(.data) for UI_WindowBlocksAttrArray_Insert_Cup
    interface_insert_cup.o(.data) refers to interface_insert_cup.o(.conststring) for .conststring
    comm_fifo.o(i.Comm_FIFO_Init) refers to memseta.o(.text) for __aeabi_memclr
    comm_fifo.o(i.Comm_FIFO_RxDataPut) refers to memcpya.o(.text) for __aeabi_memcpy
    comm_fifo.o(i.Comm_FIFO_TxDataGet) refers to memcpya.o(.text) for __aeabi_memcpy
    hw_config.o(i.Enter_LowPowerMode) refers to usb_pwr.o(.data) for bDeviceState
    hw_config.o(i.Get_SerialNum) refers to hw_config.o(i.IntToUnicode) for IntToUnicode
    hw_config.o(i.Get_SerialNum) refers to usb_desc.o(.data) for Virtual_Com_Port_StringSerial
    hw_config.o(i.Leave_LowPowerMode) refers to usb_init.o(.bss) for Device_Info
    hw_config.o(i.Leave_LowPowerMode) refers to usb_pwr.o(.data) for bDeviceState
    hw_config.o(i.Set_System) refers to stm32f10x_rcc.o(i.RCC_APB2PeriphClockCmd) for RCC_APB2PeriphClockCmd
    hw_config.o(i.Set_System) refers to stm32f10x_gpio.o(i.GPIO_Init) for GPIO_Init
    hw_config.o(i.Set_System) refers to stm32f10x_exti.o(i.EXTI_ClearITPendingBit) for EXTI_ClearITPendingBit
    hw_config.o(i.Set_System) refers to stm32f10x_exti.o(i.EXTI_Init) for EXTI_Init
    hw_config.o(i.Set_System) refers to hw_config.o(.data) for EXTI_InitStructure
    hw_config.o(i.Set_USBClock) refers to stm32f10x_rcc.o(i.RCC_USBCLKConfig) for RCC_USBCLKConfig
    hw_config.o(i.Set_USBClock) refers to stm32f10x_rcc.o(i.RCC_APB1PeriphClockCmd) for RCC_APB1PeriphClockCmd
    hw_config.o(i.USB_Cable_Config) refers to stm32f10x_gpio.o(i.GPIO_ResetBits) for GPIO_ResetBits
    hw_config.o(i.USB_Cable_Config) refers to stm32f10x_gpio.o(i.GPIO_SetBits) for GPIO_SetBits
    hw_config.o(i.USB_Config) refers to hw_config.o(i.Set_System) for Set_System
    hw_config.o(i.USB_Config) refers to hw_config.o(i.Set_USBClock) for Set_USBClock
    hw_config.o(i.USB_Config) refers to hw_config.o(i.USB_Interrupts_Config) for USB_Interrupts_Config
    hw_config.o(i.USB_Config) refers to usb_init.o(i.USB_Init) for USB_Init
    hw_config.o(i.USB_Interrupts_Config) refers to misc.o(i.NVIC_Init) for NVIC_Init
    usb_endp.o(i.EP3_OUT_Callback) refers to stm32f10x_tim.o(i.TIM_Cmd) for TIM_Cmd
    usb_endp.o(i.EP3_OUT_Callback) refers to usb_sil.o(i.USB_SIL_Read) for USB_SIL_Read
    usb_endp.o(i.EP3_OUT_Callback) refers to usb_endp.o(i.TimeOut_Reload) for TimeOut_Reload
    usb_endp.o(i.EP3_OUT_Callback) refers to usb_regs.o(i.SetEPRxValid) for SetEPRxValid
    usb_endp.o(i.EP3_OUT_Callback) refers to usb_endp.o(.data) for Framelen
    usb_endp.o(i.EP3_OUT_Callback) refers to usb_endp.o(.bss) for data
    usb_endp.o(i.SOF_Callback) refers to memseta.o(.text) for __aeabi_memclr
    usb_endp.o(i.SOF_Callback) refers to memcpya.o(.text) for __aeabi_memcpy
    usb_endp.o(i.SOF_Callback) refers to usb_mem.o(i.UserToPMABufferCopy) for UserToPMABufferCopy
    usb_endp.o(i.SOF_Callback) refers to usb_regs.o(i.SetEPTxCount) for SetEPTxCount
    usb_endp.o(i.SOF_Callback) refers to usb_regs.o(i.SetEPTxValid) for SetEPTxValid
    usb_endp.o(i.SOF_Callback) refers to usb_pwr.o(.data) for bDeviceState
    usb_endp.o(i.SOF_Callback) refers to usb_endp.o(.data) for FramelenTx
    usb_endp.o(i.SOF_Callback) refers to comm_fifo.o(.data) for Comm_RequestTX
    usb_endp.o(i.SOF_Callback) refers to usb_endp.o(.bss) for Txdata
    usb_endp.o(i.SOF_Callback) refers to comm_fifo.o(.bss) for TxData
    usb_endp.o(i.TIM2_IRQHandler) refers to stm32f10x_tim.o(i.TIM_GetITStatus) for TIM_GetITStatus
    usb_endp.o(i.TIM2_IRQHandler) refers to stm32f10x_tim.o(i.TIM_Cmd) for TIM_Cmd
    usb_endp.o(i.TIM2_IRQHandler) refers to common.o(i.Common_CalculateCRC) for Common_CalculateCRC
    usb_endp.o(i.TIM2_IRQHandler) refers to memcpya.o(.text) for __aeabi_memcpy
    usb_endp.o(i.TIM2_IRQHandler) refers to comm_fifo.o(i.Comm_FIFO_RxDataPut) for Comm_FIFO_RxDataPut
    usb_endp.o(i.TIM2_IRQHandler) refers to memseta.o(.text) for __aeabi_memclr
    usb_endp.o(i.TIM2_IRQHandler) refers to stm32f10x_tim.o(i.TIM_ClearITPendingBit) for TIM_ClearITPendingBit
    usb_endp.o(i.TIM2_IRQHandler) refers to usb_endp.o(.data) for Framelen
    usb_endp.o(i.TIM2_IRQHandler) refers to usb_endp.o(.bss) for data
    usb_endp.o(i.TIM2_IRQHandler) refers to comm_fifo.o(.bss) for RxDataFIFO
    usb_istr.o(i.USB_Istr) refers to usb_endp.o(i.SOF_Callback) for SOF_Callback
    usb_istr.o(i.USB_Istr) refers to usb_int.o(i.CTR_LP) for CTR_LP
    usb_istr.o(i.USB_Istr) refers to usb_pwr.o(i.Resume) for Resume
    usb_istr.o(i.USB_Istr) refers to usb_pwr.o(i.Suspend) for Suspend
    usb_istr.o(i.USB_Istr) refers to usb_istr.o(.data) for wIstr
    usb_istr.o(i.USB_Istr) refers to usb_init.o(.data) for wInterrupt_Mask
    usb_istr.o(i.USB_Istr) refers to usb_prop.o(.data) for Device_Property
    usb_istr.o(i.USB_Istr) refers to usb_pwr.o(.data) for fSuspendEnabled
    usb_istr.o(.data) refers to usb_endp.o(i.EP1_IN_Callback) for EP1_IN_Callback
    usb_istr.o(.data) refers to usb_core.o(i.NOP_Process) for NOP_Process
    usb_istr.o(.data) refers to usb_endp.o(i.EP3_OUT_Callback) for EP3_OUT_Callback
    usb_it.o(i.USBWakeUp_IRQHandler) refers to stm32f10x_exti.o(i.EXTI_ClearITPendingBit) for EXTI_ClearITPendingBit
    usb_it.o(i.USB_LP_CAN1_RX0_IRQHandler) refers to usb_istr.o(i.USB_Istr) for USB_Istr
    usb_prop.o(i.Virtual_Com_Port_Data_Setup) refers to usb_init.o(.data) for pInformation
    usb_prop.o(i.Virtual_Com_Port_Data_Setup) refers to usb_prop.o(i.Virtual_Com_Port_GetLineCoding) for Virtual_Com_Port_GetLineCoding
    usb_prop.o(i.Virtual_Com_Port_Data_Setup) refers to usb_prop.o(i.Virtual_Com_Port_SetLineCoding) for Virtual_Com_Port_SetLineCoding
    usb_prop.o(i.Virtual_Com_Port_Data_Setup) refers to usb_prop.o(.data) for Request
    usb_prop.o(i.Virtual_Com_Port_GetConfigDescriptor) refers to usb_core.o(i.Standard_GetDescriptorData) for Standard_GetDescriptorData
    usb_prop.o(i.Virtual_Com_Port_GetConfigDescriptor) refers to usb_prop.o(.data) for Config_Descriptor
    usb_prop.o(i.Virtual_Com_Port_GetDeviceDescriptor) refers to usb_core.o(i.Standard_GetDescriptorData) for Standard_GetDescriptorData
    usb_prop.o(i.Virtual_Com_Port_GetDeviceDescriptor) refers to usb_prop.o(.data) for Device_Descriptor
    usb_prop.o(i.Virtual_Com_Port_GetLineCoding) refers to usb_init.o(.data) for pInformation
    usb_prop.o(i.Virtual_Com_Port_GetLineCoding) refers to usb_prop.o(.data) for linecoding
    usb_prop.o(i.Virtual_Com_Port_GetStringDescriptor) refers to usb_core.o(i.Standard_GetDescriptorData) for Standard_GetDescriptorData
    usb_prop.o(i.Virtual_Com_Port_GetStringDescriptor) refers to usb_init.o(.data) for pInformation
    usb_prop.o(i.Virtual_Com_Port_GetStringDescriptor) refers to usb_prop.o(.data) for String_Descriptor
    usb_prop.o(i.Virtual_Com_Port_NoData_Setup) refers to usb_init.o(.data) for pInformation
    usb_prop.o(i.Virtual_Com_Port_Reset) refers to usb_regs.o(i.SetBTABLE) for SetBTABLE
    usb_prop.o(i.Virtual_Com_Port_Reset) refers to usb_regs.o(i.SetEPType) for SetEPType
    usb_prop.o(i.Virtual_Com_Port_Reset) refers to usb_regs.o(i.SetEPTxStatus) for SetEPTxStatus
    usb_prop.o(i.Virtual_Com_Port_Reset) refers to usb_regs.o(i.SetEPRxAddr) for SetEPRxAddr
    usb_prop.o(i.Virtual_Com_Port_Reset) refers to usb_regs.o(i.SetEPTxAddr) for SetEPTxAddr
    usb_prop.o(i.Virtual_Com_Port_Reset) refers to usb_regs.o(i.Clear_Status_Out) for Clear_Status_Out
    usb_prop.o(i.Virtual_Com_Port_Reset) refers to usb_regs.o(i.SetEPRxCount) for SetEPRxCount
    usb_prop.o(i.Virtual_Com_Port_Reset) refers to usb_regs.o(i.SetEPRxValid) for SetEPRxValid
    usb_prop.o(i.Virtual_Com_Port_Reset) refers to usb_regs.o(i.SetEPRxStatus) for SetEPRxStatus
    usb_prop.o(i.Virtual_Com_Port_Reset) refers to usb_core.o(i.SetDeviceAddress) for SetDeviceAddress
    usb_prop.o(i.Virtual_Com_Port_Reset) refers to usb_init.o(.data) for pInformation
    usb_prop.o(i.Virtual_Com_Port_Reset) refers to usb_desc.o(.constdata) for Virtual_Com_Port_ConfigDescriptor
    usb_prop.o(i.Virtual_Com_Port_Reset) refers to usb_prop.o(.data) for Device_Property
    usb_prop.o(i.Virtual_Com_Port_Reset) refers to usb_pwr.o(.data) for bDeviceState
    usb_prop.o(i.Virtual_Com_Port_SetConfiguration) refers to usb_init.o(.bss) for Device_Info
    usb_prop.o(i.Virtual_Com_Port_SetConfiguration) refers to usb_pwr.o(.data) for bDeviceState
    usb_prop.o(i.Virtual_Com_Port_SetDeviceAddress) refers to usb_pwr.o(.data) for bDeviceState
    usb_prop.o(i.Virtual_Com_Port_SetLineCoding) refers to usb_init.o(.data) for pInformation
    usb_prop.o(i.Virtual_Com_Port_SetLineCoding) refers to usb_prop.o(.data) for linecoding
    usb_prop.o(i.Virtual_Com_Port_Status_In) refers to usb_prop.o(.data) for Request
    usb_prop.o(i.Virtual_Com_Port_init) refers to hw_config.o(i.Get_SerialNum) for Get_SerialNum
    usb_prop.o(i.Virtual_Com_Port_init) refers to usb_pwr.o(i.PowerOn) for PowerOn
    usb_prop.o(i.Virtual_Com_Port_init) refers to usb_sil.o(i.USB_SIL_Init) for USB_SIL_Init
    usb_prop.o(i.Virtual_Com_Port_init) refers to usb_init.o(.data) for pInformation
    usb_prop.o(i.Virtual_Com_Port_init) refers to usb_pwr.o(.data) for bDeviceState
    usb_prop.o(.data) refers to usb_prop.o(i.Virtual_Com_Port_init) for Virtual_Com_Port_init
    usb_prop.o(.data) refers to usb_prop.o(i.Virtual_Com_Port_Reset) for Virtual_Com_Port_Reset
    usb_prop.o(.data) refers to usb_prop.o(i.Virtual_Com_Port_Status_In) for Virtual_Com_Port_Status_In
    usb_prop.o(.data) refers to usb_prop.o(i.Virtual_Com_Port_Status_Out) for Virtual_Com_Port_Status_Out
    usb_prop.o(.data) refers to usb_prop.o(i.Virtual_Com_Port_Data_Setup) for Virtual_Com_Port_Data_Setup
    usb_prop.o(.data) refers to usb_prop.o(i.Virtual_Com_Port_NoData_Setup) for Virtual_Com_Port_NoData_Setup
    usb_prop.o(.data) refers to usb_prop.o(i.Virtual_Com_Port_Get_Interface_Setting) for Virtual_Com_Port_Get_Interface_Setting
    usb_prop.o(.data) refers to usb_prop.o(i.Virtual_Com_Port_GetDeviceDescriptor) for Virtual_Com_Port_GetDeviceDescriptor
    usb_prop.o(.data) refers to usb_prop.o(i.Virtual_Com_Port_GetConfigDescriptor) for Virtual_Com_Port_GetConfigDescriptor
    usb_prop.o(.data) refers to usb_prop.o(i.Virtual_Com_Port_GetStringDescriptor) for Virtual_Com_Port_GetStringDescriptor
    usb_prop.o(.data) refers to usb_core.o(i.NOP_Process) for NOP_Process
    usb_prop.o(.data) refers to usb_prop.o(i.Virtual_Com_Port_SetConfiguration) for Virtual_Com_Port_SetConfiguration
    usb_prop.o(.data) refers to usb_prop.o(i.Virtual_Com_Port_SetDeviceAddress) for Virtual_Com_Port_SetDeviceAddress
    usb_prop.o(.data) refers to usb_desc.o(.constdata) for Virtual_Com_Port_DeviceDescriptor
    usb_prop.o(.data) refers to usb_desc.o(.data) for Virtual_Com_Port_StringSerial
    usb_pwr.o(i.PowerOff) refers to hw_config.o(i.USB_Cable_Config) for USB_Cable_Config
    usb_pwr.o(i.PowerOn) refers to hw_config.o(i.USB_Cable_Config) for USB_Cable_Config
    usb_pwr.o(i.PowerOn) refers to usb_init.o(.data) for wInterrupt_Mask
    usb_pwr.o(i.Resume) refers to usb_pwr.o(i.Resume_Init) for Resume_Init
    usb_pwr.o(i.Resume) refers to usb_pwr.o(.data) for ResumeS
    usb_pwr.o(i.Resume_Init) refers to hw_config.o(i.Leave_LowPowerMode) for Leave_LowPowerMode
    usb_pwr.o(i.Suspend) refers to usb_pwr.o(.bss) for EP
    stmflash.o(i.STMFlash_Read) refers to stmflash.o(i.STMFlash_ReadHalfWord) for STMFlash_ReadHalfWord
    stmflash.o(i.STMFlash_Write) refers to stm32f10x_flash.o(i.FLASH_Unlock) for FLASH_Unlock
    stmflash.o(i.STMFlash_Write) refers to stmflash.o(i.STMFlash_Read) for STMFlash_Read
    stmflash.o(i.STMFlash_Write) refers to stm32f10x_flash.o(i.FLASH_ErasePage) for FLASH_ErasePage
    stmflash.o(i.STMFlash_Write) refers to stmflash.o(i.STMFlash_Write_NoCheck) for STMFlash_Write_NoCheck
    stmflash.o(i.STMFlash_Write) refers to stm32f10x_flash.o(i.FLASH_Lock) for FLASH_Lock
    stmflash.o(i.STMFlash_Write) refers to stmflash.o(.bss) for flashTmpBuffer
    stmflash.o(i.STMFlash_Write_NoCheck) refers to stm32f10x_flash.o(i.FLASH_ProgramHalfWord) for FLASH_ProgramHalfWord
    usb.o(i.USB_BasicInit) refers to stm32f10x_rcc.o(i.RCC_APB2PeriphClockCmd) for RCC_APB2PeriphClockCmd
    usb.o(i.USB_BasicInit) refers to stm32f10x_gpio.o(i.GPIO_Init) for GPIO_Init
    usb.o(i.USB_BasicInit) refers to stm32f10x_gpio.o(i.GPIO_WriteBit) for GPIO_WriteBit
    usb.o(i.USB_BasicInit) refers to stm32f10x_rcc.o(i.RCC_APB1PeriphClockCmd) for RCC_APB1PeriphClockCmd
    usb.o(i.USB_BasicInit) refers to stm32f10x_tim.o(i.TIM_TimeBaseInit) for TIM_TimeBaseInit
    usb.o(i.USB_BasicInit) refers to stm32f10x_tim.o(i.TIM_ITConfig) for TIM_ITConfig
    usb.o(i.USB_BasicInit) refers to misc.o(i.NVIC_Init) for NVIC_Init
    usb.o(i.USB_BasicInit) refers to stm32f10x_tim.o(i.TIM_Cmd) for TIM_Cmd
    usb.o(i.USB_VirtualCOM_Init) refers to usb.o(i.USB_BasicInit) for USB_BasicInit
    usb.o(i.USB_VirtualCOM_Init) refers to hw_config.o(i.USB_Config) for USB_Config
    usb.o(i.USB_VirtualCOM_Init) refers to comm_fifo.o(i.Comm_FIFO_Init) for Comm_FIFO_Init
    usb.o(i.USB_VirtualCOM_Init) refers to comm_fifo.o(.bss) for RxDataFIFO
    usb.o(i.USB_VirtualCOM_Process) refers to comm_fifo.o(i.Comm_FIFO_RxDataGet) for Comm_FIFO_RxDataGet
    usb.o(i.USB_VirtualCOM_Process) refers to memcpya.o(.text) for __aeabi_memcpy
    usb.o(i.USB_VirtualCOM_Process) refers to comm_fifo.o(.bss) for RxDataFIFO
    usb.o(i.USB_VirtualCOM_Process) refers to hostcomm.o(.data) for HostComm_RecBufAvailable
    usb.o(i.USB_VirtualCOM_Process) refers to hostcomm.o(.bss) for cmdBuffer
    hostcomm.o(i.HostComm_Cmd_Process) refers to hostcomm.o(i.HostComm_Cmd_Respond_APP_SysInfo) for HostComm_Cmd_Respond_APP_SysInfo
    hostcomm.o(i.HostComm_Cmd_Process) refers to hostcomm.o(i.HostComm_Cmd_Respond_APP_LaunchBL) for HostComm_Cmd_Respond_APP_LaunchBL
    hostcomm.o(i.HostComm_Cmd_Process) refers to hostcomm.o(i.HostComm_Cmd_Respond_APP_ReadIDCard) for HostComm_Cmd_Respond_APP_ReadIDCard
    hostcomm.o(i.HostComm_Cmd_Process) refers to hostcomm.o(i.HostComm_Cmd_Respond_APP_WriteIDCard) for HostComm_Cmd_Respond_APP_WriteIDCard
    hostcomm.o(i.HostComm_Cmd_Process) refers to hostcomm.o(i.HostComm_Cmd_Respond_APP_SetTime) for HostComm_Cmd_Respond_APP_SetTime
    hostcomm.o(i.HostComm_Cmd_Process) refers to hostcomm.o(i.HostComm_Cmd_Respond_APP_SetMode) for HostComm_Cmd_Respond_APP_SetMode
    hostcomm.o(i.HostComm_Cmd_Process) refers to hostcomm.o(i.HostComm_Cmd_Respond_APP_SetMFG) for HostComm_Cmd_Respond_APP_SetMFG
    hostcomm.o(i.HostComm_Cmd_Process) refers to hostcomm.o(i.HostComm_Cmd_Respond_APP_SetLanguage) for HostComm_Cmd_Respond_APP_SetLanguage
    hostcomm.o(i.HostComm_Cmd_Process) refers to hostcomm.o(i.HostComm_Cmd_Respond_APP_SetPrinter) for HostComm_Cmd_Respond_APP_SetPrinter
    hostcomm.o(i.HostComm_Cmd_Process) refers to hostcomm.o(i.HostComm_Cmd_Respond_APP_SetOutFab) for HostComm_Cmd_Respond_APP_SetOutFab
    hostcomm.o(i.HostComm_Cmd_Process) refers to hostcomm.o(i.HostComm_Cmd_Respond_APP_ReadResistor) for HostComm_Cmd_Respond_APP_ReadResistor
    hostcomm.o(i.HostComm_Cmd_Process) refers to hostcomm.o(i.HostComm_Cmd_Respond_APP_WriteResistor) for HostComm_Cmd_Respond_APP_WriteResistor
    hostcomm.o(i.HostComm_Cmd_Process) refers to hostcomm.o(i.HostComm_Cmd_Respond_APP_SetCalcParameters) for HostComm_Cmd_Respond_APP_SetCalcParameters
    hostcomm.o(i.HostComm_Cmd_Process) refers to hostcomm.o(i.HostComm_Cmd_Respond_APP_StartStop_ReadRecords) for HostComm_Cmd_Respond_APP_StartStop_ReadRecords
    hostcomm.o(i.HostComm_Cmd_Process) refers to hostcomm.o(i.HostComm_Cmd_Respond_APP_ReadRecords_PerDate) for HostComm_Cmd_Respond_APP_ReadRecords_PerDate
    hostcomm.o(i.HostComm_Cmd_Process) refers to hostcomm.o(i.HostComm_Cmd_Respond_APP_SetOutputData) for HostComm_Cmd_Respond_APP_SetOutputData
    hostcomm.o(i.HostComm_Cmd_Process) refers to hostcomm.o(i.HostComm_Cmd_Respond_APP_Error) for HostComm_Cmd_Respond_APP_Error
    hostcomm.o(i.HostComm_Cmd_Process) refers to hostcomm.o(i.HostComm_Cmd_Respond_Status) for HostComm_Cmd_Respond_Status
    hostcomm.o(i.HostComm_Cmd_Process) refers to hostcomm.o(i.HostComm_SendThrUSB) for HostComm_SendThrUSB
    hostcomm.o(i.HostComm_Cmd_Process) refers to common.o(i.SoftReset) for SoftReset
    hostcomm.o(i.HostComm_Cmd_Process) refers to hostcomm.o(.bss) for cmdBuffer
    hostcomm.o(i.HostComm_Cmd_Process) refers to hostcomm.o(.data) for cmdType
    hostcomm.o(i.HostComm_Cmd_Respond_APP_Error) refers to hostcomm.o(i.HostComm_Cmd_Respond_Common) for HostComm_Cmd_Respond_Common
    hostcomm.o(i.HostComm_Cmd_Respond_APP_LaunchBL) refers to hostcomm.o(i.HostComm_Cmd_Respond_Common) for HostComm_Cmd_Respond_Common
    hostcomm.o(i.HostComm_Cmd_Respond_APP_SetBLEName) refers to stm32f10x_it.o(i.Delay_ms_SW) for Delay_ms_SW
    hostcomm.o(i.HostComm_Cmd_Respond_APP_SetBLEName) refers to hostcomm.o(i.HostComm_Cmd_Respond_Common) for HostComm_Cmd_Respond_Common
    hostcomm.o(i.HostComm_Cmd_Respond_APP_SetOutputData) refers to hostcomm.o(i.HostComm_Cmd_Respond_Common) for HostComm_Cmd_Respond_Common
    hostcomm.o(i.HostComm_Cmd_Respond_APP_SetOutputData) refers to signalprocess_sample.o(.data) for SignalProcess_output
    hostcomm.o(i.HostComm_Cmd_Respond_APP_SetOutputData) refers to hostcomm.o(.bss) for respBuffer
    hostcomm.o(i.HostComm_Cmd_Respond_APP_SetTime) refers to memseta.o(.text) for __aeabi_memclr4
    hostcomm.o(i.HostComm_Cmd_Respond_APP_SetTime) refers to systemmanage_rtc.o(i.SystemManage_RTC_Set) for SystemManage_RTC_Set
    hostcomm.o(i.HostComm_Cmd_Respond_APP_SetTime) refers to systemmanage_rtc.o(i.SystemManage_RTC_Get) for SystemManage_RTC_Get
    hostcomm.o(i.HostComm_Cmd_Respond_APP_SetTime) refers to hostcomm.o(i.HostComm_Cmd_Respond_Common) for HostComm_Cmd_Respond_Common
    hostcomm.o(i.HostComm_Cmd_Respond_APP_SetTime) refers to systemmanage_rtc.o(.data) for SystemManage_SetTime
    hostcomm.o(i.HostComm_Cmd_Respond_APP_SetTime) refers to hostcomm.o(.bss) for cmdBuffer
    hostcomm.o(i.HostComm_Cmd_Respond_APP_SysInfo) refers to hostcomm.o(i.LoByte) for LoByte
    hostcomm.o(i.HostComm_Cmd_Respond_APP_SysInfo) refers to hostcomm.o(i.HiByte) for HiByte
    hostcomm.o(i.HostComm_Cmd_Respond_APP_SysInfo) refers to hostcomm.o(i.HostComm_Cmd_Respond_Common) for HostComm_Cmd_Respond_Common
    hostcomm.o(i.HostComm_Cmd_Respond_APP_SysInfo) refers to hostcomm.o(.bss) for respBuffer
    hostcomm.o(i.HostComm_Cmd_Respond_Common) refers to hostcomm.o(i.LoByte) for LoByte
    hostcomm.o(i.HostComm_Cmd_Respond_Common) refers to hostcomm.o(i.HiByte) for HiByte
    hostcomm.o(i.HostComm_Cmd_Respond_Common) refers to common.o(i.Common_CalculateCRC) for Common_CalculateCRC
    hostcomm.o(i.HostComm_Cmd_Respond_Common) refers to hostcomm.o(.bss) for respBuffer
    hostcomm.o(i.HostComm_Cmd_Respond_Status) refers to hostcomm.o(i.HostComm_Cmd_Respond_Common) for HostComm_Cmd_Respond_Common
    hostcomm.o(i.HostComm_Cmd_Respond_Status) refers to hostcomm.o(.bss) for respBuffer
    hostcomm.o(i.HostComm_Config) refers to stm32f10x_usart.o(i.USART_Init) for USART_Init
    hostcomm.o(i.HostComm_Config) refers to stm32f10x_usart.o(i.USART_ITConfig) for USART_ITConfig
    hostcomm.o(i.HostComm_Config) refers to stm32f10x_usart.o(i.USART_Cmd) for USART_Cmd
    hostcomm.o(i.HostComm_Config) refers to stm32f10x_usart.o(i.USART_ClearFlag) for USART_ClearFlag
    hostcomm.o(i.HostComm_Init) refers to stm32f10x_rcc.o(i.RCC_APB1PeriphClockCmd) for RCC_APB1PeriphClockCmd
    hostcomm.o(i.HostComm_Init) refers to hostcomm.o(i.HostComm_NVIC_Configuration) for HostComm_NVIC_Configuration
    hostcomm.o(i.HostComm_Init) refers to hostcomm.o(i.HostComm_Config) for HostComm_Config
    hostcomm.o(i.HostComm_NVIC_Configuration) refers to misc.o(i.NVIC_Init) for NVIC_Init
    hostcomm.o(i.HostComm_Process) refers to hostcomm.o(i.HostComm_Cmd_Process) for HostComm_Cmd_Process
    hostcomm.o(i.HostComm_Process) refers to hostcomm.o(.data) for HostComm_RecBufAvailable
    hostcomm.o(i.HostComm_Report_ReadRecords) refers to memcpya.o(.text) for __aeabi_memcpy
    hostcomm.o(i.HostComm_Report_ReadRecords) refers to hostcomm.o(i.HostComm_Cmd_Respond_Common) for HostComm_Cmd_Respond_Common
    hostcomm.o(i.HostComm_Report_ReadRecords) refers to hostcomm.o(i.HostComm_SendThrUSB) for HostComm_SendThrUSB
    hostcomm.o(i.HostComm_Report_ReadRecords) refers to hostcomm.o(.bss) for respBuffer
    hostcomm.o(i.HostComm_Report_ReadRecords_LastOne) refers to hostcomm.o(i.HostComm_Cmd_Respond_Common) for HostComm_Cmd_Respond_Common
    hostcomm.o(i.HostComm_Report_ReadRecords_LastOne) refers to hostcomm.o(i.HostComm_SendThrUSB) for HostComm_SendThrUSB
    hostcomm.o(i.HostComm_Report_ReadRecords_LastOne) refers to hostcomm.o(.bss) for respBuffer
    hostcomm.o(i.HostComm_Send) refers to stm32f10x_usart.o(i.USART_SendData) for USART_SendData
    hostcomm.o(i.HostComm_Send) refers to stm32f10x_usart.o(i.USART_GetFlagStatus) for USART_GetFlagStatus
    hostcomm.o(i.HostComm_Send) refers to hostcomm.o(i.itoa) for itoa
    hostcomm.o(i.HostComm_SendResp) refers to stm32f10x_usart.o(i.USART_SendData) for USART_SendData
    hostcomm.o(i.HostComm_SendResp) refers to stm32f10x_usart.o(i.USART_GetFlagStatus) for USART_GetFlagStatus
    hostcomm.o(i.HostComm_SendThrUSB) refers to memcpya.o(.text) for __aeabi_memcpy
    hostcomm.o(i.HostComm_SendThrUSB) refers to comm_fifo.o(.bss) for TxData
    hostcomm.o(i.HostComm_SendThrUSB) refers to comm_fifo.o(.data) for Comm_RequestTX
    hostcomm.o(i.HostComm_Send_Char) refers to stm32f10x_usart.o(i.USART_SendData) for USART_SendData
    hostcomm.o(i.HostComm_Send_Char) refers to stm32f10x_usart.o(i.USART_GetFlagStatus) for USART_GetFlagStatus
    hostcomm.o(i.HostComm_Send_LIS) refers to hostcomm.o(i.HostComm_SendThrUSB) for HostComm_SendThrUSB
    hostcomm.o(i.HostComm_Send_LIS) refers to stm32f10x_it.o(i.Delay_ms_SW) for Delay_ms_SW
    hostcomm.o(i.HostComm_Send_String) refers to hostcomm.o(i.HostComm_Send_Char) for HostComm_Send_Char
    hostcomm.o(i.USART2_IRQHandler) refers to stm32f10x_usart.o(i.USART_GetITStatus) for USART_GetITStatus
    hostcomm.o(i.USART2_IRQHandler) refers to stm32f10x_usart.o(i.USART_ReceiveData) for USART_ReceiveData
    hostcomm.o(i.USART2_IRQHandler) refers to memcpya.o(.text) for __aeabi_memcpy
    hostcomm.o(i.USART2_IRQHandler) refers to memseta.o(.text) for __aeabi_memclr
    hostcomm.o(i.USART2_IRQHandler) refers to hostcomm.o(.data) for contReceive
    hostcomm.o(i.USART2_IRQHandler) refers to hostcomm.o(.bss) for recBuffer
    usb_core.o(i.DataStageIn) refers to usb_regs.o(i.GetEPTxAddr) for GetEPTxAddr
    usb_core.o(i.DataStageIn) refers to usb_mem.o(i.UserToPMABufferCopy) for UserToPMABufferCopy
    usb_core.o(i.DataStageIn) refers to usb_regs.o(i.SetEPTxCount) for SetEPTxCount
    usb_core.o(i.DataStageIn) refers to usb_init.o(.data) for pInformation
    usb_core.o(i.DataStageIn) refers to usb_core.o(.data) for Data_Mul_MaxPacketSize
    usb_core.o(i.DataStageIn) refers to usb_int.o(.data) for SaveTState
    usb_core.o(i.DataStageOut) refers to usb_regs.o(i.GetEPRxAddr) for GetEPRxAddr
    usb_core.o(i.DataStageOut) refers to usb_mem.o(i.PMAToUserBufferCopy) for PMAToUserBufferCopy
    usb_core.o(i.DataStageOut) refers to usb_regs.o(i.SetEPTxCount) for SetEPTxCount
    usb_core.o(i.DataStageOut) refers to usb_init.o(.data) for pInformation
    usb_core.o(i.DataStageOut) refers to usb_int.o(.data) for SaveRState
    usb_core.o(i.Data_Setup0) refers to usb_core.o(i.DataStageIn) for DataStageIn
    usb_core.o(i.Data_Setup0) refers to usb_init.o(.data) for pInformation
    usb_core.o(i.Data_Setup0) refers to usb_core.o(i.Standard_GetStatus) for Standard_GetStatus
    usb_core.o(i.Data_Setup0) refers to usb_prop.o(.data) for Device_Table
    usb_core.o(i.Data_Setup0) refers to usb_core.o(i.Standard_GetConfiguration) for Standard_GetConfiguration
    usb_core.o(i.Data_Setup0) refers to usb_core.o(i.Standard_GetInterface) for Standard_GetInterface
    usb_core.o(i.Data_Setup0) refers to usb_core.o(.data) for Data_Mul_MaxPacketSize
    usb_core.o(i.Data_Setup0) refers to usb_int.o(.data) for SaveRState
    usb_core.o(i.In0_Process) refers to usb_core.o(i.DataStageIn) for DataStageIn
    usb_core.o(i.In0_Process) refers to usb_core.o(i.SetDeviceAddress) for SetDeviceAddress
    usb_core.o(i.In0_Process) refers to usb_core.o(i.Post0_Process) for Post0_Process
    usb_core.o(i.In0_Process) refers to usb_init.o(.data) for pInformation
    usb_core.o(i.NoData_Setup0) refers to usb_core.o(i.Standard_SetConfiguration) for Standard_SetConfiguration
    usb_core.o(i.NoData_Setup0) refers to usb_core.o(i.Standard_SetDeviceFeature) for Standard_SetDeviceFeature
    usb_core.o(i.NoData_Setup0) refers to usb_core.o(i.Standard_ClearFeature) for Standard_ClearFeature
    usb_core.o(i.NoData_Setup0) refers to usb_core.o(i.Standard_SetInterface) for Standard_SetInterface
    usb_core.o(i.NoData_Setup0) refers to usb_core.o(i.Standard_SetEndPointFeature) for Standard_SetEndPointFeature
    usb_core.o(i.NoData_Setup0) refers to usb_init.o(.data) for pInformation
    usb_core.o(i.NoData_Setup0) refers to usb_int.o(.data) for SaveTState
    usb_core.o(i.Out0_Process) refers to usb_core.o(i.DataStageOut) for DataStageOut
    usb_core.o(i.Out0_Process) refers to usb_core.o(i.Post0_Process) for Post0_Process
    usb_core.o(i.Out0_Process) refers to usb_init.o(.data) for pInformation
    usb_core.o(i.Post0_Process) refers to usb_regs.o(i.SetEPRxCount) for SetEPRxCount
    usb_core.o(i.Post0_Process) refers to usb_prop.o(.data) for Device_Property
    usb_core.o(i.Post0_Process) refers to usb_init.o(.data) for pInformation
    usb_core.o(i.Post0_Process) refers to usb_int.o(.data) for SaveRState
    usb_core.o(i.SetDeviceAddress) refers to usb_prop.o(.data) for Device_Table
    usb_core.o(i.Setup0_Process) refers to usb_regs.o(i.ByteSwap) for ByteSwap
    usb_core.o(i.Setup0_Process) refers to usb_core.o(i.NoData_Setup0) for NoData_Setup0
    usb_core.o(i.Setup0_Process) refers to usb_core.o(i.Data_Setup0) for Data_Setup0
    usb_core.o(i.Setup0_Process) refers to usb_core.o(i.Post0_Process) for Post0_Process
    usb_core.o(i.Setup0_Process) refers to usb_init.o(.data) for pInformation
    usb_core.o(i.Standard_ClearFeature) refers to usb_regs.o(i.ClearDTOG_TX) for ClearDTOG_TX
    usb_core.o(i.Standard_ClearFeature) refers to usb_regs.o(i.SetEPTxStatus) for SetEPTxStatus
    usb_core.o(i.Standard_ClearFeature) refers to usb_regs.o(i.SetEPRxCount) for SetEPRxCount
    usb_core.o(i.Standard_ClearFeature) refers to usb_regs.o(i.ClearDTOG_RX) for ClearDTOG_RX
    usb_core.o(i.Standard_ClearFeature) refers to usb_init.o(.data) for pInformation
    usb_core.o(i.Standard_ClearFeature) refers to usb_prop.o(.data) for Device_Table
    usb_core.o(i.Standard_GetConfiguration) refers to usb_init.o(.data) for pInformation
    usb_core.o(i.Standard_GetDescriptorData) refers to usb_init.o(.data) for pInformation
    usb_core.o(i.Standard_GetInterface) refers to usb_init.o(.data) for pInformation
    usb_core.o(i.Standard_GetStatus) refers to usb_init.o(.data) for pInformation
    usb_core.o(i.Standard_GetStatus) refers to usb_core.o(.data) for StatusInfo
    usb_core.o(i.Standard_SetConfiguration) refers to usb_init.o(.data) for pInformation
    usb_core.o(i.Standard_SetConfiguration) refers to usb_prop.o(.data) for Device_Table
    usb_core.o(i.Standard_SetDeviceFeature) refers to usb_init.o(.data) for pInformation
    usb_core.o(i.Standard_SetEndPointFeature) refers to usb_init.o(.data) for pInformation
    usb_core.o(i.Standard_SetEndPointFeature) refers to usb_prop.o(.data) for Device_Table
    usb_core.o(i.Standard_SetInterface) refers to usb_init.o(.data) for pInformation
    usb_init.o(i.USB_Init) refers to usb_init.o(.bss) for Device_Info
    usb_init.o(i.USB_Init) refers to usb_init.o(.data) for pInformation
    usb_init.o(i.USB_Init) refers to usb_prop.o(.data) for Device_Property
    usb_int.o(i.CTR_HP) refers to usb_istr.o(.data) for wIstr
    usb_int.o(i.CTR_HP) refers to usb_init.o(.data) for EPindex
    usb_int.o(i.CTR_LP) refers to usb_core.o(i.In0_Process) for In0_Process
    usb_int.o(i.CTR_LP) refers to usb_core.o(i.Setup0_Process) for Setup0_Process
    usb_int.o(i.CTR_LP) refers to usb_core.o(i.Out0_Process) for Out0_Process
    usb_int.o(i.CTR_LP) refers to usb_istr.o(.data) for wIstr
    usb_int.o(i.CTR_LP) refers to usb_init.o(.data) for EPindex
    usb_int.o(i.CTR_LP) refers to usb_int.o(.data) for SaveRState
    usb_regs.o(i.SetDouBleBuffEPStall) refers to usb_regs.o(i.GetENDPOINT) for GetENDPOINT
    usb_sil.o(i.USB_SIL_Init) refers to usb_init.o(.data) for wInterrupt_Mask
    usb_sil.o(i.USB_SIL_Read) refers to usb_regs.o(i.GetEPRxCount) for GetEPRxCount
    usb_sil.o(i.USB_SIL_Read) refers to usb_regs.o(i.GetEPRxAddr) for GetEPRxAddr
    usb_sil.o(i.USB_SIL_Read) refers to usb_mem.o(i.PMAToUserBufferCopy) for PMAToUserBufferCopy
    usb_sil.o(i.USB_SIL_Write) refers to usb_regs.o(i.GetEPTxAddr) for GetEPTxAddr
    usb_sil.o(i.USB_SIL_Write) refers to usb_mem.o(i.UserToPMABufferCopy) for UserToPMABufferCopy
    usb_sil.o(i.USB_SIL_Write) refers to usb_regs.o(i.SetEPTxCount) for SetEPTxCount
    entry.o(.ARM.Collect$$$$00000000) refers (Special) to entry7b.o(.ARM.Collect$$$$00000008) for _main_clock
    entry.o(.ARM.Collect$$$$00000000) refers (Special) to entry8.o(.ARM.Collect$$$$00000009) for _main_init
    entry.o(.ARM.Collect$$$$00000000) refers (Special) to entry5.o(.ARM.Collect$$$$00000004) for _main_scatterload
    entry.o(.ARM.Collect$$$$00000000) refers (Special) to entry2.o(.ARM.Collect$$$$00000001) for _main_stk
    printfb.o(i.__0fprintf$bare) refers to printfb.o(i._printf_core) for _printf_core
    printfb.o(i.__0fprintf$bare) refers to fputc.o(i.fputc) for fputc
    printfb.o(i.__0printf$bare) refers to printfb.o(i._printf_core) for _printf_core
    printfb.o(i.__0printf$bare) refers to fputc.o(i.fputc) for fputc
    printfb.o(i.__0printf$bare) refers to stdout.o(.data) for __stdout
    printfb.o(i.__0snprintf$bare) refers to printfb.o(i._printf_core) for _printf_core
    printfb.o(i.__0snprintf$bare) refers to printfb.o(i._snputc) for _snputc
    printfb.o(i.__0sprintf$bare) refers to printfb.o(i._printf_core) for _printf_core
    printfb.o(i.__0sprintf$bare) refers to printfb.o(i._sputc) for _sputc
    printfb.o(i.__0vfprintf$bare) refers to printfb.o(i._printf_core) for _printf_core
    printfb.o(i.__0vfprintf$bare) refers to fputc.o(i.fputc) for fputc
    printfb.o(i.__0vprintf$bare) refers to printfb.o(i._printf_core) for _printf_core
    printfb.o(i.__0vprintf$bare) refers to fputc.o(i.fputc) for fputc
    printfb.o(i.__0vprintf$bare) refers to stdout.o(.data) for __stdout
    printfb.o(i.__0vsnprintf$bare) refers to printfb.o(i._printf_core) for _printf_core
    printfb.o(i.__0vsnprintf$bare) refers to printfb.o(i._snputc) for _snputc
    printfb.o(i.__0vsprintf$bare) refers to printfb.o(i._printf_core) for _printf_core
    printfb.o(i.__0vsprintf$bare) refers to printfb.o(i._sputc) for _sputc
    printf0.o(i.__0fprintf$0) refers to printf0.o(i._printf_core) for _printf_core
    printf0.o(i.__0fprintf$0) refers to fputc.o(i.fputc) for fputc
    printf0.o(i.__0printf$0) refers to printf0.o(i._printf_core) for _printf_core
    printf0.o(i.__0printf$0) refers to fputc.o(i.fputc) for fputc
    printf0.o(i.__0printf$0) refers to stdout.o(.data) for __stdout
    printf0.o(i.__0snprintf$0) refers to printf0.o(i._printf_core) for _printf_core
    printf0.o(i.__0snprintf$0) refers to printf0.o(i._snputc) for _snputc
    printf0.o(i.__0sprintf$0) refers to printf0.o(i._printf_core) for _printf_core
    printf0.o(i.__0sprintf$0) refers to printf0.o(i._sputc) for _sputc
    printf0.o(i.__0vfprintf$0) refers to printf0.o(i._printf_core) for _printf_core
    printf0.o(i.__0vfprintf$0) refers to fputc.o(i.fputc) for fputc
    printf0.o(i.__0vprintf$0) refers to printf0.o(i._printf_core) for _printf_core
    printf0.o(i.__0vprintf$0) refers to fputc.o(i.fputc) for fputc
    printf0.o(i.__0vprintf$0) refers to stdout.o(.data) for __stdout
    printf0.o(i.__0vsnprintf$0) refers to printf0.o(i._printf_core) for _printf_core
    printf0.o(i.__0vsnprintf$0) refers to printf0.o(i._snputc) for _snputc
    printf0.o(i.__0vsprintf$0) refers to printf0.o(i._printf_core) for _printf_core
    printf0.o(i.__0vsprintf$0) refers to printf0.o(i._sputc) for _sputc
    printf1.o(i.__0fprintf$1) refers to printf1.o(i._printf_core) for _printf_core
    printf1.o(i.__0fprintf$1) refers to fputc.o(i.fputc) for fputc
    printf1.o(i.__0printf$1) refers to printf1.o(i._printf_core) for _printf_core
    printf1.o(i.__0printf$1) refers to fputc.o(i.fputc) for fputc
    printf1.o(i.__0printf$1) refers to stdout.o(.data) for __stdout
    printf1.o(i.__0snprintf$1) refers to printf1.o(i._printf_core) for _printf_core
    printf1.o(i.__0snprintf$1) refers to printf1.o(i._snputc) for _snputc
    printf1.o(i.__0sprintf$1) refers to printf1.o(i._printf_core) for _printf_core
    printf1.o(i.__0sprintf$1) refers to printf1.o(i._sputc) for _sputc
    printf1.o(i.__0vfprintf$1) refers to printf1.o(i._printf_core) for _printf_core
    printf1.o(i.__0vfprintf$1) refers to fputc.o(i.fputc) for fputc
    printf1.o(i.__0vprintf$1) refers to printf1.o(i._printf_core) for _printf_core
    printf1.o(i.__0vprintf$1) refers to fputc.o(i.fputc) for fputc
    printf1.o(i.__0vprintf$1) refers to stdout.o(.data) for __stdout
    printf1.o(i.__0vsnprintf$1) refers to printf1.o(i._printf_core) for _printf_core
    printf1.o(i.__0vsnprintf$1) refers to printf1.o(i._snputc) for _snputc
    printf1.o(i.__0vsprintf$1) refers to printf1.o(i._printf_core) for _printf_core
    printf1.o(i.__0vsprintf$1) refers to printf1.o(i._sputc) for _sputc
    printf1.o(i._printf_core) refers to uidiv.o(.text) for __aeabi_uidivmod
    printf2.o(i.__0fprintf$2) refers to printf2.o(i._printf_core) for _printf_core
    printf2.o(i.__0fprintf$2) refers to fputc.o(i.fputc) for fputc
    printf2.o(i.__0printf$2) refers to printf2.o(i._printf_core) for _printf_core
    printf2.o(i.__0printf$2) refers to fputc.o(i.fputc) for fputc
    printf2.o(i.__0printf$2) refers to stdout.o(.data) for __stdout
    printf2.o(i.__0snprintf$2) refers to printf2.o(i._printf_core) for _printf_core
    printf2.o(i.__0snprintf$2) refers to printf2.o(i._snputc) for _snputc
    printf2.o(i.__0sprintf$2) refers to printf2.o(i._printf_core) for _printf_core
    printf2.o(i.__0sprintf$2) refers to printf2.o(i._sputc) for _sputc
    printf2.o(i.__0vfprintf$2) refers to printf2.o(i._printf_core) for _printf_core
    printf2.o(i.__0vfprintf$2) refers to fputc.o(i.fputc) for fputc
    printf2.o(i.__0vprintf$2) refers to printf2.o(i._printf_core) for _printf_core
    printf2.o(i.__0vprintf$2) refers to fputc.o(i.fputc) for fputc
    printf2.o(i.__0vprintf$2) refers to stdout.o(.data) for __stdout
    printf2.o(i.__0vsnprintf$2) refers to printf2.o(i._printf_core) for _printf_core
    printf2.o(i.__0vsnprintf$2) refers to printf2.o(i._snputc) for _snputc
    printf2.o(i.__0vsprintf$2) refers to printf2.o(i._printf_core) for _printf_core
    printf2.o(i.__0vsprintf$2) refers to printf2.o(i._sputc) for _sputc
    printf3.o(i.__0fprintf$3) refers to printf3.o(i._printf_core) for _printf_core
    printf3.o(i.__0fprintf$3) refers to fputc.o(i.fputc) for fputc
    printf3.o(i.__0printf$3) refers to printf3.o(i._printf_core) for _printf_core
    printf3.o(i.__0printf$3) refers to fputc.o(i.fputc) for fputc
    printf3.o(i.__0printf$3) refers to stdout.o(.data) for __stdout
    printf3.o(i.__0snprintf$3) refers to printf3.o(i._printf_core) for _printf_core
    printf3.o(i.__0snprintf$3) refers to printf3.o(i._snputc) for _snputc
    printf3.o(i.__0sprintf$3) refers to printf3.o(i._printf_core) for _printf_core
    printf3.o(i.__0sprintf$3) refers to printf3.o(i._sputc) for _sputc
    printf3.o(i.__0vfprintf$3) refers to printf3.o(i._printf_core) for _printf_core
    printf3.o(i.__0vfprintf$3) refers to fputc.o(i.fputc) for fputc
    printf3.o(i.__0vprintf$3) refers to printf3.o(i._printf_core) for _printf_core
    printf3.o(i.__0vprintf$3) refers to fputc.o(i.fputc) for fputc
    printf3.o(i.__0vprintf$3) refers to stdout.o(.data) for __stdout
    printf3.o(i.__0vsnprintf$3) refers to printf3.o(i._printf_core) for _printf_core
    printf3.o(i.__0vsnprintf$3) refers to printf3.o(i._snputc) for _snputc
    printf3.o(i.__0vsprintf$3) refers to printf3.o(i._printf_core) for _printf_core
    printf3.o(i.__0vsprintf$3) refers to printf3.o(i._sputc) for _sputc
    printf3.o(i._printf_core) refers to uidiv.o(.text) for __aeabi_uidivmod
    printf4.o(i.__0fprintf$4) refers to printf4.o(i._printf_core) for _printf_core
    printf4.o(i.__0fprintf$4) refers to fputc.o(i.fputc) for fputc
    printf4.o(i.__0printf$4) refers to printf4.o(i._printf_core) for _printf_core
    printf4.o(i.__0printf$4) refers to fputc.o(i.fputc) for fputc
    printf4.o(i.__0printf$4) refers to stdout.o(.data) for __stdout
    printf4.o(i.__0snprintf$4) refers to printf4.o(i._printf_core) for _printf_core
    printf4.o(i.__0snprintf$4) refers to printf4.o(i._snputc) for _snputc
    printf4.o(i.__0sprintf$4) refers to printf4.o(i._printf_core) for _printf_core
    printf4.o(i.__0sprintf$4) refers to printf4.o(i._sputc) for _sputc
    printf4.o(i.__0vfprintf$4) refers to printf4.o(i._printf_core) for _printf_core
    printf4.o(i.__0vfprintf$4) refers to fputc.o(i.fputc) for fputc
    printf4.o(i.__0vprintf$4) refers to printf4.o(i._printf_core) for _printf_core
    printf4.o(i.__0vprintf$4) refers to fputc.o(i.fputc) for fputc
    printf4.o(i.__0vprintf$4) refers to stdout.o(.data) for __stdout
    printf4.o(i.__0vsnprintf$4) refers to printf4.o(i._printf_core) for _printf_core
    printf4.o(i.__0vsnprintf$4) refers to printf4.o(i._snputc) for _snputc
    printf4.o(i.__0vsprintf$4) refers to printf4.o(i._printf_core) for _printf_core
    printf4.o(i.__0vsprintf$4) refers to printf4.o(i._sputc) for _sputc
    printf4.o(i._printf_core) refers to uldiv.o(.text) for __aeabi_uldivmod
    printf5.o(i.__0fprintf$5) refers to printf5.o(i._printf_core) for _printf_core
    printf5.o(i.__0fprintf$5) refers to fputc.o(i.fputc) for fputc
    printf5.o(i.__0printf$5) refers to printf5.o(i._printf_core) for _printf_core
    printf5.o(i.__0printf$5) refers to fputc.o(i.fputc) for fputc
    printf5.o(i.__0printf$5) refers to stdout.o(.data) for __stdout
    printf5.o(i.__0snprintf$5) refers to printf5.o(i._printf_core) for _printf_core
    printf5.o(i.__0snprintf$5) refers to printf5.o(i._snputc) for _snputc
    printf5.o(i.__0sprintf$5) refers to printf5.o(i._printf_core) for _printf_core
    printf5.o(i.__0sprintf$5) refers to printf5.o(i._sputc) for _sputc
    printf5.o(i.__0vfprintf$5) refers to printf5.o(i._printf_core) for _printf_core
    printf5.o(i.__0vfprintf$5) refers to fputc.o(i.fputc) for fputc
    printf5.o(i.__0vprintf$5) refers to printf5.o(i._printf_core) for _printf_core
    printf5.o(i.__0vprintf$5) refers to fputc.o(i.fputc) for fputc
    printf5.o(i.__0vprintf$5) refers to stdout.o(.data) for __stdout
    printf5.o(i.__0vsnprintf$5) refers to printf5.o(i._printf_core) for _printf_core
    printf5.o(i.__0vsnprintf$5) refers to printf5.o(i._snputc) for _snputc
    printf5.o(i.__0vsprintf$5) refers to printf5.o(i._printf_core) for _printf_core
    printf5.o(i.__0vsprintf$5) refers to printf5.o(i._sputc) for _sputc
    printf5.o(i._printf_core) refers to uldiv.o(.text) for __aeabi_uldivmod
    printf6.o(i.__0fprintf$6) refers to printf6.o(i._printf_core) for _printf_core
    printf6.o(i.__0fprintf$6) refers to fputc.o(i.fputc) for fputc
    printf6.o(i.__0printf$6) refers to printf6.o(i._printf_core) for _printf_core
    printf6.o(i.__0printf$6) refers to fputc.o(i.fputc) for fputc
    printf6.o(i.__0printf$6) refers to stdout.o(.data) for __stdout
    printf6.o(i.__0snprintf$6) refers to printf6.o(i._printf_core) for _printf_core
    printf6.o(i.__0snprintf$6) refers to printf6.o(i._snputc) for _snputc
    printf6.o(i.__0sprintf$6) refers to printf6.o(i._printf_core) for _printf_core
    printf6.o(i.__0sprintf$6) refers to printf6.o(i._sputc) for _sputc
    printf6.o(i.__0vfprintf$6) refers to printf6.o(i._printf_core) for _printf_core
    printf6.o(i.__0vfprintf$6) refers to fputc.o(i.fputc) for fputc
    printf6.o(i.__0vprintf$6) refers to printf6.o(i._printf_core) for _printf_core
    printf6.o(i.__0vprintf$6) refers to fputc.o(i.fputc) for fputc
    printf6.o(i.__0vprintf$6) refers to stdout.o(.data) for __stdout
    printf6.o(i.__0vsnprintf$6) refers to printf6.o(i._printf_core) for _printf_core
    printf6.o(i.__0vsnprintf$6) refers to printf6.o(i._snputc) for _snputc
    printf6.o(i.__0vsprintf$6) refers to printf6.o(i._printf_core) for _printf_core
    printf6.o(i.__0vsprintf$6) refers to printf6.o(i._sputc) for _sputc
    printf6.o(i._printf_core) refers to printf6.o(i._printf_pre_padding) for _printf_pre_padding
    printf6.o(i._printf_core) refers to uidiv.o(.text) for __aeabi_uidivmod
    printf6.o(i._printf_core) refers to printf6.o(i._printf_post_padding) for _printf_post_padding
    printf7.o(i.__0fprintf$7) refers to printf7.o(i._printf_core) for _printf_core
    printf7.o(i.__0fprintf$7) refers to fputc.o(i.fputc) for fputc
    printf7.o(i.__0printf$7) refers to printf7.o(i._printf_core) for _printf_core
    printf7.o(i.__0printf$7) refers to fputc.o(i.fputc) for fputc
    printf7.o(i.__0printf$7) refers to stdout.o(.data) for __stdout
    printf7.o(i.__0snprintf$7) refers to printf7.o(i._printf_core) for _printf_core
    printf7.o(i.__0snprintf$7) refers to printf7.o(i._snputc) for _snputc
    printf7.o(i.__0sprintf$7) refers to printf7.o(i._printf_core) for _printf_core
    printf7.o(i.__0sprintf$7) refers to printf7.o(i._sputc) for _sputc
    printf7.o(i.__0vfprintf$7) refers to printf7.o(i._printf_core) for _printf_core
    printf7.o(i.__0vfprintf$7) refers to fputc.o(i.fputc) for fputc
    printf7.o(i.__0vprintf$7) refers to printf7.o(i._printf_core) for _printf_core
    printf7.o(i.__0vprintf$7) refers to fputc.o(i.fputc) for fputc
    printf7.o(i.__0vprintf$7) refers to stdout.o(.data) for __stdout
    printf7.o(i.__0vsnprintf$7) refers to printf7.o(i._printf_core) for _printf_core
    printf7.o(i.__0vsnprintf$7) refers to printf7.o(i._snputc) for _snputc
    printf7.o(i.__0vsprintf$7) refers to printf7.o(i._printf_core) for _printf_core
    printf7.o(i.__0vsprintf$7) refers to printf7.o(i._sputc) for _sputc
    printf7.o(i._printf_core) refers to printf7.o(i._printf_pre_padding) for _printf_pre_padding
    printf7.o(i._printf_core) refers to uldiv.o(.text) for __aeabi_uldivmod
    printf7.o(i._printf_core) refers to printf7.o(i._printf_post_padding) for _printf_post_padding
    printf8.o(i.__0fprintf$8) refers to printf8.o(i._printf_core) for _printf_core
    printf8.o(i.__0fprintf$8) refers to fputc.o(i.fputc) for fputc
    printf8.o(i.__0printf$8) refers to printf8.o(i._printf_core) for _printf_core
    printf8.o(i.__0printf$8) refers to fputc.o(i.fputc) for fputc
    printf8.o(i.__0printf$8) refers to stdout.o(.data) for __stdout
    printf8.o(i.__0snprintf$8) refers to printf8.o(i._printf_core) for _printf_core
    printf8.o(i.__0snprintf$8) refers to printf8.o(i._snputc) for _snputc
    printf8.o(i.__0sprintf$8) refers to printf8.o(i._printf_core) for _printf_core
    printf8.o(i.__0sprintf$8) refers to printf8.o(i._sputc) for _sputc
    printf8.o(i.__0vfprintf$8) refers to printf8.o(i._printf_core) for _printf_core
    printf8.o(i.__0vfprintf$8) refers to fputc.o(i.fputc) for fputc
    printf8.o(i.__0vprintf$8) refers to printf8.o(i._printf_core) for _printf_core
    printf8.o(i.__0vprintf$8) refers to fputc.o(i.fputc) for fputc
    printf8.o(i.__0vprintf$8) refers to stdout.o(.data) for __stdout
    printf8.o(i.__0vsnprintf$8) refers to printf8.o(i._printf_core) for _printf_core
    printf8.o(i.__0vsnprintf$8) refers to printf8.o(i._snputc) for _snputc
    printf8.o(i.__0vsprintf$8) refers to printf8.o(i._printf_core) for _printf_core
    printf8.o(i.__0vsprintf$8) refers to printf8.o(i._sputc) for _sputc
    printf8.o(i._printf_core) refers to printf8.o(i._printf_pre_padding) for _printf_pre_padding
    printf8.o(i._printf_core) refers to uldiv.o(.text) for __aeabi_uldivmod
    printf8.o(i._printf_core) refers to printf8.o(i._printf_post_padding) for _printf_post_padding
    printfa.o(i.__0fprintf) refers (Special) to iusefp.o(.text) for __I$use$fp
    printfa.o(i.__0fprintf) refers to printfa.o(i._printf_core) for _printf_core
    printfa.o(i.__0fprintf) refers to fputc.o(i.fputc) for fputc
    printfa.o(i.__0printf) refers (Special) to iusefp.o(.text) for __I$use$fp
    printfa.o(i.__0printf) refers to printfa.o(i._printf_core) for _printf_core
    printfa.o(i.__0printf) refers to fputc.o(i.fputc) for fputc
    printfa.o(i.__0printf) refers to stdout.o(.data) for __stdout
    printfa.o(i.__0snprintf) refers (Special) to iusefp.o(.text) for __I$use$fp
    printfa.o(i.__0snprintf) refers to printfa.o(i._printf_core) for _printf_core
    printfa.o(i.__0snprintf) refers to printfa.o(i._snputc) for _snputc
    printfa.o(i.__0sprintf) refers (Special) to iusefp.o(.text) for __I$use$fp
    printfa.o(i.__0sprintf) refers to printfa.o(i._printf_core) for _printf_core
    printfa.o(i.__0sprintf) refers to printfa.o(i._sputc) for _sputc
    printfa.o(i.__0vfprintf) refers (Special) to iusefp.o(.text) for __I$use$fp
    printfa.o(i.__0vfprintf) refers to printfa.o(i._printf_core) for _printf_core
    printfa.o(i.__0vfprintf) refers to fputc.o(i.fputc) for fputc
    printfa.o(i.__0vprintf) refers (Special) to iusefp.o(.text) for __I$use$fp
    printfa.o(i.__0vprintf) refers to printfa.o(i._printf_core) for _printf_core
    printfa.o(i.__0vprintf) refers to fputc.o(i.fputc) for fputc
    printfa.o(i.__0vprintf) refers to stdout.o(.data) for __stdout
    printfa.o(i.__0vsnprintf) refers (Special) to iusefp.o(.text) for __I$use$fp
    printfa.o(i.__0vsnprintf) refers to printfa.o(i._printf_core) for _printf_core
    printfa.o(i.__0vsnprintf) refers to printfa.o(i._snputc) for _snputc
    printfa.o(i.__0vsprintf) refers (Special) to iusefp.o(.text) for __I$use$fp
    printfa.o(i.__0vsprintf) refers to printfa.o(i._printf_core) for _printf_core
    printfa.o(i.__0vsprintf) refers to printfa.o(i._sputc) for _sputc
    printfa.o(i._fp_digits) refers (Special) to iusefp.o(.text) for __I$use$fp
    printfa.o(i._fp_digits) refers to dmul.o(.text) for __aeabi_dmul
    printfa.o(i._fp_digits) refers to ddiv.o(.text) for __aeabi_ddiv
    printfa.o(i._fp_digits) refers to cdrcmple.o(.text) for __aeabi_cdrcmple
    printfa.o(i._fp_digits) refers to dadd.o(.text) for __aeabi_dadd
    printfa.o(i._fp_digits) refers to dfixul.o(.text) for __aeabi_d2ulz
    printfa.o(i._fp_digits) refers to uldiv.o(.text) for __aeabi_uldivmod
    printfa.o(i._printf_core) refers (Special) to iusefp.o(.text) for __I$use$fp
    printfa.o(i._printf_core) refers to printfa.o(i._printf_pre_padding) for _printf_pre_padding
    printfa.o(i._printf_core) refers to uldiv.o(.text) for __aeabi_uldivmod
    printfa.o(i._printf_core) refers to printfa.o(i._printf_post_padding) for _printf_post_padding
    printfa.o(i._printf_core) refers to printfa.o(i._fp_digits) for _fp_digits
    printfa.o(i._printf_core) refers to uidiv.o(.text) for __aeabi_uidivmod
    printfa.o(i._printf_post_padding) refers (Special) to iusefp.o(.text) for __I$use$fp
    printfa.o(i._printf_pre_padding) refers (Special) to iusefp.o(.text) for __I$use$fp
    printfa.o(i._snputc) refers (Special) to iusefp.o(.text) for __I$use$fp
    printfa.o(i._sputc) refers (Special) to iusefp.o(.text) for __I$use$fp
    fadd.o(.text) refers (Special) to iusefp.o(.text) for __I$use$fp
    fadd.o(.text) refers to fepilogue.o(.text) for _float_epilogue
    fmul.o(.text) refers (Special) to iusefp.o(.text) for __I$use$fp
    dadd.o(.text) refers (Special) to iusefp.o(.text) for __I$use$fp
    dadd.o(.text) refers to llshl.o(.text) for __aeabi_llsl
    dadd.o(.text) refers to llsshr.o(.text) for __aeabi_lasr
    dadd.o(.text) refers to depilogue.o(.text) for _double_epilogue
    dmul.o(.text) refers (Special) to iusefp.o(.text) for __I$use$fp
    dmul.o(.text) refers to depilogue.o(.text) for _double_epilogue
    ddiv.o(.text) refers (Special) to iusefp.o(.text) for __I$use$fp
    ddiv.o(.text) refers to depilogue.o(.text) for _double_round
    ffltui.o(.text) refers (Special) to iusefp.o(.text) for __I$use$fp
    ffltui.o(.text) refers to fepilogue.o(.text) for _float_epilogue
    dfixui.o(.text) refers (Special) to iusefp.o(.text) for __I$use$fp
    dfixui.o(.text) refers to llushr.o(.text) for __aeabi_llsr
    f2d.o(.text) refers (Special) to iusefp.o(.text) for __I$use$fp
    cdcmple.o(.text) refers (Special) to iusefp.o(.text) for __I$use$fp
    cdrcmple.o(.text) refers (Special) to iusefp.o(.text) for __I$use$fp
    entry2.o(.ARM.Collect$$$$00000001) refers to entry2.o(.ARM.Collect$$$$00002712) for __lit__00000000
    entry2.o(.ARM.Collect$$$$00002712) refers to startup_stm32f10x_hd.o(STACK) for __initial_sp
    entry2.o(__vectab_stack_and_reset_area) refers to startup_stm32f10x_hd.o(STACK) for __initial_sp
    entry2.o(__vectab_stack_and_reset_area) refers to entry.o(.ARM.Collect$$$$00000000) for __main
    entry5.o(.ARM.Collect$$$$00000004) refers to init.o(.text) for __scatterload
    entry8.o(.ARM.Collect$$$$00000009) refers to main.o(i.main) for main
    fputc.o(i.fputc) refers (Special) to iusesemip.o(.text) for __I$use$semihosting$fputc
    fputc.o(i.fputc) refers (Special) to semi.o(.text) for __semihosting_library_function
    uldiv.o(.text) refers to llushr.o(.text) for __aeabi_llsr
    uldiv.o(.text) refers to llshl.o(.text) for __aeabi_llsl
    depilogue.o(.text) refers to llshl.o(.text) for __aeabi_llsl
    depilogue.o(.text) refers to llushr.o(.text) for __aeabi_llsr
    dfixul.o(.text) refers to llushr.o(.text) for __aeabi_llsr
    dfixul.o(.text) refers to llshl.o(.text) for __aeabi_llsl
    init.o(.text) refers to entry5.o(.ARM.Collect$$$$00000004) for __main_after_scatterload


==============================================================================

Removing Unused input sections from the image.

    Removing core_cm3.o(.emb_text), (32 bytes).
    Removing startup_stm32f10x_hd.o(HEAP), (512 bytes).
    Removing system_stm32f10x.o(i.SystemCoreClockUpdate), (164 bytes).
    Removing system_stm32f10x.o(.data), (20 bytes).
    Removing misc.o(i.NVIC_SetVectorTable), (20 bytes).
    Removing misc.o(i.NVIC_SystemLPConfig), (32 bytes).
    Removing misc.o(i.SysTick_CLKSourceConfig), (40 bytes).
    Removing stm32f10x_adc.o(i.ADC_AnalogWatchdogCmd), (20 bytes).
    Removing stm32f10x_adc.o(i.ADC_AnalogWatchdogSingleChannelConfig), (16 bytes).
    Removing stm32f10x_adc.o(i.ADC_AnalogWatchdogThresholdsConfig), (6 bytes).
    Removing stm32f10x_adc.o(i.ADC_AutoInjectedConvCmd), (22 bytes).
    Removing stm32f10x_adc.o(i.ADC_ClearFlag), (6 bytes).
    Removing stm32f10x_adc.o(i.ADC_ClearITPendingBit), (10 bytes).
    Removing stm32f10x_adc.o(i.ADC_DMACmd), (22 bytes).
    Removing stm32f10x_adc.o(i.ADC_DeInit), (92 bytes).
    Removing stm32f10x_adc.o(i.ADC_DiscModeChannelCountConfig), (24 bytes).
    Removing stm32f10x_adc.o(i.ADC_DiscModeCmd), (22 bytes).
    Removing stm32f10x_adc.o(i.ADC_ExternalTrigConvCmd), (22 bytes).
    Removing stm32f10x_adc.o(i.ADC_ExternalTrigInjectedConvCmd), (22 bytes).
    Removing stm32f10x_adc.o(i.ADC_ExternalTrigInjectedConvConfig), (16 bytes).
    Removing stm32f10x_adc.o(i.ADC_GetDualModeConversionValue), (12 bytes).
    Removing stm32f10x_adc.o(i.ADC_GetITStatus), (36 bytes).
    Removing stm32f10x_adc.o(i.ADC_GetInjectedConversionValue), (18 bytes).
    Removing stm32f10x_adc.o(i.ADC_GetSoftwareStartConvStatus), (20 bytes).
    Removing stm32f10x_adc.o(i.ADC_GetSoftwareStartInjectedConvCmdStatus), (20 bytes).
    Removing stm32f10x_adc.o(i.ADC_ITConfig), (24 bytes).
    Removing stm32f10x_adc.o(i.ADC_InjectedChannelConfig), (130 bytes).
    Removing stm32f10x_adc.o(i.ADC_InjectedDiscModeCmd), (22 bytes).
    Removing stm32f10x_adc.o(i.ADC_InjectedSequencerLengthConfig), (24 bytes).
    Removing stm32f10x_adc.o(i.ADC_SetInjectedOffset), (12 bytes).
    Removing stm32f10x_adc.o(i.ADC_SoftwareStartInjectedConvCmd), (22 bytes).
    Removing stm32f10x_adc.o(i.ADC_StructInit), (18 bytes).
    Removing stm32f10x_adc.o(i.ADC_TempSensorVrefintCmd), (36 bytes).
    Removing stm32f10x_bkp.o(i.BKP_ClearFlag), (20 bytes).
    Removing stm32f10x_bkp.o(i.BKP_ClearITPendingBit), (20 bytes).
    Removing stm32f10x_bkp.o(i.BKP_DeInit), (16 bytes).
    Removing stm32f10x_bkp.o(i.BKP_GetFlagStatus), (12 bytes).
    Removing stm32f10x_bkp.o(i.BKP_GetITStatus), (12 bytes).
    Removing stm32f10x_bkp.o(i.BKP_ITConfig), (12 bytes).
    Removing stm32f10x_bkp.o(i.BKP_RTCOutputConfig), (28 bytes).
    Removing stm32f10x_bkp.o(i.BKP_ReadBackupRegister), (16 bytes).
    Removing stm32f10x_bkp.o(i.BKP_SetRTCCalibrationValue), (28 bytes).
    Removing stm32f10x_bkp.o(i.BKP_TamperPinCmd), (12 bytes).
    Removing stm32f10x_bkp.o(i.BKP_TamperPinLevelConfig), (12 bytes).
    Removing stm32f10x_bkp.o(i.BKP_WriteBackupRegister), (16 bytes).
    Removing stm32f10x_can.o(i.CAN_CancelTransmit), (48 bytes).
    Removing stm32f10x_can.o(i.CAN_ClearFlag), (56 bytes).
    Removing stm32f10x_can.o(i.CAN_ClearITPendingBit), (168 bytes).
    Removing stm32f10x_can.o(i.CAN_DBGFreeze), (22 bytes).
    Removing stm32f10x_can.o(i.CAN_DeInit), (56 bytes).
    Removing stm32f10x_can.o(i.CAN_FIFORelease), (22 bytes).
    Removing stm32f10x_can.o(i.CAN_FilterInit), (264 bytes).
    Removing stm32f10x_can.o(i.CAN_GetFlagStatus), (120 bytes).
    Removing stm32f10x_can.o(i.CAN_GetITStatus), (288 bytes).
    Removing stm32f10x_can.o(i.CAN_GetLSBTransmitErrorCounter), (12 bytes).
    Removing stm32f10x_can.o(i.CAN_GetLastErrorCode), (12 bytes).
    Removing stm32f10x_can.o(i.CAN_GetReceiveErrorCounter), (10 bytes).
    Removing stm32f10x_can.o(i.CAN_ITConfig), (18 bytes).
    Removing stm32f10x_can.o(i.CAN_Init), (284 bytes).
    Removing stm32f10x_can.o(i.CAN_MessagePending), (30 bytes).
    Removing stm32f10x_can.o(i.CAN_OperatingModeRequest), (162 bytes).
    Removing stm32f10x_can.o(i.CAN_Receive), (240 bytes).
    Removing stm32f10x_can.o(i.CAN_SlaveStartBank), (52 bytes).
    Removing stm32f10x_can.o(i.CAN_Sleep), (30 bytes).
    Removing stm32f10x_can.o(i.CAN_StructInit), (32 bytes).
    Removing stm32f10x_can.o(i.CAN_TTComModeCmd), (118 bytes).
    Removing stm32f10x_can.o(i.CAN_Transmit), (294 bytes).
    Removing stm32f10x_can.o(i.CAN_TransmitStatus), (160 bytes).
    Removing stm32f10x_can.o(i.CAN_WakeUp), (48 bytes).
    Removing stm32f10x_can.o(i.CheckITStatus), (16 bytes).
    Removing stm32f10x_cec.o(i.CEC_ClearFlag), (36 bytes).
    Removing stm32f10x_cec.o(i.CEC_ClearITPendingBit), (36 bytes).
    Removing stm32f10x_cec.o(i.CEC_Cmd), (28 bytes).
    Removing stm32f10x_cec.o(i.CEC_DeInit), (22 bytes).
    Removing stm32f10x_cec.o(i.CEC_EndOfMessageCmd), (12 bytes).
    Removing stm32f10x_cec.o(i.CEC_GetFlagStatus), (48 bytes).
    Removing stm32f10x_cec.o(i.CEC_GetITStatus), (40 bytes).
    Removing stm32f10x_cec.o(i.CEC_ITConfig), (12 bytes).
    Removing stm32f10x_cec.o(i.CEC_Init), (32 bytes).
    Removing stm32f10x_cec.o(i.CEC_OwnAddressConfig), (12 bytes).
    Removing stm32f10x_cec.o(i.CEC_ReceiveDataByte), (12 bytes).
    Removing stm32f10x_cec.o(i.CEC_SendDataByte), (12 bytes).
    Removing stm32f10x_cec.o(i.CEC_SetPrescaler), (12 bytes).
    Removing stm32f10x_cec.o(i.CEC_StartOfMessage), (12 bytes).
    Removing stm32f10x_crc.o(i.CRC_CalcBlockCRC), (36 bytes).
    Removing stm32f10x_crc.o(i.CRC_CalcCRC), (16 bytes).
    Removing stm32f10x_crc.o(i.CRC_GetCRC), (12 bytes).
    Removing stm32f10x_crc.o(i.CRC_GetIDRegister), (12 bytes).
    Removing stm32f10x_crc.o(i.CRC_ResetDR), (12 bytes).
    Removing stm32f10x_crc.o(i.CRC_SetIDRegister), (12 bytes).
    Removing stm32f10x_dac.o(i.DAC_Cmd), (40 bytes).
    Removing stm32f10x_dac.o(i.DAC_DMACmd), (44 bytes).
    Removing stm32f10x_dac.o(i.DAC_DeInit), (22 bytes).
    Removing stm32f10x_dac.o(i.DAC_DualSoftwareTriggerCmd), (36 bytes).
    Removing stm32f10x_dac.o(i.DAC_GetDataOutputValue), (24 bytes).
    Removing stm32f10x_dac.o(i.DAC_Init), (52 bytes).
    Removing stm32f10x_dac.o(i.DAC_SetChannel1Data), (20 bytes).
    Removing stm32f10x_dac.o(i.DAC_SetChannel2Data), (20 bytes).
    Removing stm32f10x_dac.o(i.DAC_SetDualChannelData), (36 bytes).
    Removing stm32f10x_dac.o(i.DAC_SoftwareTriggerCmd), (44 bytes).
    Removing stm32f10x_dac.o(i.DAC_StructInit), (12 bytes).
    Removing stm32f10x_dac.o(i.DAC_WaveGenerationCmd), (40 bytes).
    Removing stm32f10x_dbgmcu.o(i.DBGMCU_Config), (32 bytes).
    Removing stm32f10x_dbgmcu.o(i.DBGMCU_GetDEVID), (16 bytes).
    Removing stm32f10x_dbgmcu.o(i.DBGMCU_GetREVID), (12 bytes).
    Removing stm32f10x_dma.o(i.DMA_ClearFlag), (28 bytes).
    Removing stm32f10x_dma.o(i.DMA_ClearITPendingBit), (28 bytes).
    Removing stm32f10x_dma.o(i.DMA_Cmd), (24 bytes).
    Removing stm32f10x_dma.o(i.DMA_DeInit), (332 bytes).
    Removing stm32f10x_dma.o(i.DMA_GetCurrDataCounter), (8 bytes).
    Removing stm32f10x_dma.o(i.DMA_GetFlagStatus), (44 bytes).
    Removing stm32f10x_dma.o(i.DMA_GetITStatus), (44 bytes).
    Removing stm32f10x_dma.o(i.DMA_ITConfig), (18 bytes).
    Removing stm32f10x_dma.o(i.DMA_Init), (60 bytes).
    Removing stm32f10x_dma.o(i.DMA_SetCurrDataCounter), (4 bytes).
    Removing stm32f10x_dma.o(i.DMA_StructInit), (26 bytes).
    Removing stm32f10x_exti.o(i.EXTI_ClearFlag), (12 bytes).
    Removing stm32f10x_exti.o(i.EXTI_DeInit), (36 bytes).
    Removing stm32f10x_exti.o(i.EXTI_GenerateSWInterrupt), (16 bytes).
    Removing stm32f10x_exti.o(i.EXTI_GetFlagStatus), (24 bytes).
    Removing stm32f10x_exti.o(i.EXTI_StructInit), (16 bytes).
    Removing stm32f10x_flash.o(i.FLASH_ClearFlag), (12 bytes).
    Removing stm32f10x_flash.o(i.FLASH_EnableWriteProtection), (196 bytes).
    Removing stm32f10x_flash.o(i.FLASH_EraseAllBank1Pages), (72 bytes).
    Removing stm32f10x_flash.o(i.FLASH_EraseAllPages), (72 bytes).
    Removing stm32f10x_flash.o(i.FLASH_EraseOptionBytes), (168 bytes).
    Removing stm32f10x_flash.o(i.FLASH_ErasePage), (76 bytes).
    Removing stm32f10x_flash.o(i.FLASH_GetBank1Status), (56 bytes).
    Removing stm32f10x_flash.o(i.FLASH_GetFlagStatus), (48 bytes).
    Removing stm32f10x_flash.o(i.FLASH_GetPrefetchBufferStatus), (24 bytes).
    Removing stm32f10x_flash.o(i.FLASH_GetReadOutProtectionStatus), (24 bytes).
    Removing stm32f10x_flash.o(i.FLASH_GetStatus), (56 bytes).
    Removing stm32f10x_flash.o(i.FLASH_GetUserOptionByte), (12 bytes).
    Removing stm32f10x_flash.o(i.FLASH_GetWriteProtectionOptionByte), (12 bytes).
    Removing stm32f10x_flash.o(i.FLASH_HalfCycleAccessCmd), (28 bytes).
    Removing stm32f10x_flash.o(i.FLASH_ITConfig), (32 bytes).
    Removing stm32f10x_flash.o(i.FLASH_Lock), (20 bytes).
    Removing stm32f10x_flash.o(i.FLASH_LockBank1), (20 bytes).
    Removing stm32f10x_flash.o(i.FLASH_PrefetchBufferCmd), (28 bytes).
    Removing stm32f10x_flash.o(i.FLASH_ProgramHalfWord), (64 bytes).
    Removing stm32f10x_flash.o(i.FLASH_ProgramOptionByteData), (84 bytes).
    Removing stm32f10x_flash.o(i.FLASH_ProgramWord), (100 bytes).
    Removing stm32f10x_flash.o(i.FLASH_ReadOutProtection), (172 bytes).
    Removing stm32f10x_flash.o(i.FLASH_SetLatency), (24 bytes).
    Removing stm32f10x_flash.o(i.FLASH_Unlock), (24 bytes).
    Removing stm32f10x_flash.o(i.FLASH_UnlockBank1), (24 bytes).
    Removing stm32f10x_flash.o(i.FLASH_UserOptionByteConfig), (104 bytes).
    Removing stm32f10x_flash.o(i.FLASH_WaitForLastBank1Operation), (38 bytes).
    Removing stm32f10x_flash.o(i.FLASH_WaitForLastOperation), (38 bytes).
    Removing stm32f10x_fsmc.o(i.FSMC_ClearFlag), (72 bytes).
    Removing stm32f10x_fsmc.o(i.FSMC_ClearITPendingBit), (72 bytes).
    Removing stm32f10x_fsmc.o(i.FSMC_GetECC), (28 bytes).
    Removing stm32f10x_fsmc.o(i.FSMC_GetFlagStatus), (56 bytes).
    Removing stm32f10x_fsmc.o(i.FSMC_GetITStatus), (68 bytes).
    Removing stm32f10x_fsmc.o(i.FSMC_ITConfig), (136 bytes).
    Removing stm32f10x_fsmc.o(i.FSMC_NANDCmd), (92 bytes).
    Removing stm32f10x_fsmc.o(i.FSMC_NANDDeInit), (72 bytes).
    Removing stm32f10x_fsmc.o(i.FSMC_NANDECCCmd), (92 bytes).
    Removing stm32f10x_fsmc.o(i.FSMC_NANDInit), (140 bytes).
    Removing stm32f10x_fsmc.o(i.FSMC_NANDStructInit), (54 bytes).
    Removing stm32f10x_fsmc.o(i.FSMC_NORSRAMDeInit), (56 bytes).
    Removing stm32f10x_fsmc.o(i.FSMC_NORSRAMStructInit), (114 bytes).
    Removing stm32f10x_fsmc.o(i.FSMC_PCCARDCmd), (48 bytes).
    Removing stm32f10x_fsmc.o(i.FSMC_PCCARDDeInit), (48 bytes).
    Removing stm32f10x_fsmc.o(i.FSMC_PCCARDInit), (136 bytes).
    Removing stm32f10x_fsmc.o(i.FSMC_PCCARDStructInit), (60 bytes).
    Removing stm32f10x_gpio.o(i.GPIO_AFIODeInit), (20 bytes).
    Removing stm32f10x_gpio.o(i.GPIO_DeInit), (200 bytes).
    Removing stm32f10x_gpio.o(i.GPIO_ETH_MediaInterfaceConfig), (12 bytes).
    Removing stm32f10x_gpio.o(i.GPIO_EventOutputCmd), (12 bytes).
    Removing stm32f10x_gpio.o(i.GPIO_EventOutputConfig), (32 bytes).
    Removing stm32f10x_gpio.o(i.GPIO_PinLockConfig), (18 bytes).
    Removing stm32f10x_gpio.o(i.GPIO_ReadInputData), (8 bytes).
    Removing stm32f10x_gpio.o(i.GPIO_ReadOutputData), (8 bytes).
    Removing stm32f10x_gpio.o(i.GPIO_ReadOutputDataBit), (18 bytes).
    Removing stm32f10x_gpio.o(i.GPIO_StructInit), (16 bytes).
    Removing stm32f10x_gpio.o(i.GPIO_Write), (4 bytes).
    Removing stm32f10x_i2c.o(i.I2C_ARPCmd), (24 bytes).
    Removing stm32f10x_i2c.o(i.I2C_AcknowledgeConfig), (24 bytes).
    Removing stm32f10x_i2c.o(i.I2C_CalculatePEC), (24 bytes).
    Removing stm32f10x_i2c.o(i.I2C_CheckEvent), (42 bytes).
    Removing stm32f10x_i2c.o(i.I2C_ClearFlag), (12 bytes).
    Removing stm32f10x_i2c.o(i.I2C_ClearITPendingBit), (12 bytes).
    Removing stm32f10x_i2c.o(i.I2C_Cmd), (24 bytes).
    Removing stm32f10x_i2c.o(i.I2C_DMACmd), (24 bytes).
    Removing stm32f10x_i2c.o(i.I2C_DMALastTransferCmd), (24 bytes).
    Removing stm32f10x_i2c.o(i.I2C_DeInit), (56 bytes).
    Removing stm32f10x_i2c.o(i.I2C_DualAddressCmd), (24 bytes).
    Removing stm32f10x_i2c.o(i.I2C_FastModeDutyCycleConfig), (28 bytes).
    Removing stm32f10x_i2c.o(i.I2C_GeneralCallCmd), (24 bytes).
    Removing stm32f10x_i2c.o(i.I2C_GenerateSTART), (24 bytes).
    Removing stm32f10x_i2c.o(i.I2C_GenerateSTOP), (24 bytes).
    Removing stm32f10x_i2c.o(i.I2C_GetFlagStatus), (42 bytes).
    Removing stm32f10x_i2c.o(i.I2C_GetITStatus), (38 bytes).
    Removing stm32f10x_i2c.o(i.I2C_GetLastEvent), (26 bytes).
    Removing stm32f10x_i2c.o(i.I2C_GetPEC), (8 bytes).
    Removing stm32f10x_i2c.o(i.I2C_ITConfig), (24 bytes).
    Removing stm32f10x_i2c.o(i.I2C_Init), (236 bytes).
    Removing stm32f10x_i2c.o(i.I2C_NACKPositionConfig), (28 bytes).
    Removing stm32f10x_i2c.o(i.I2C_OwnAddress2Config), (22 bytes).
    Removing stm32f10x_i2c.o(i.I2C_PECPositionConfig), (28 bytes).
    Removing stm32f10x_i2c.o(i.I2C_ReadRegister), (12 bytes).
    Removing stm32f10x_i2c.o(i.I2C_ReceiveData), (8 bytes).
    Removing stm32f10x_i2c.o(i.I2C_SMBusAlertConfig), (28 bytes).
    Removing stm32f10x_i2c.o(i.I2C_Send7bitAddress), (18 bytes).
    Removing stm32f10x_i2c.o(i.I2C_SendData), (4 bytes).
    Removing stm32f10x_i2c.o(i.I2C_SoftwareResetCmd), (22 bytes).
    Removing stm32f10x_i2c.o(i.I2C_StretchClockCmd), (24 bytes).
    Removing stm32f10x_i2c.o(i.I2C_StructInit), (30 bytes).
    Removing stm32f10x_i2c.o(i.I2C_TransmitPEC), (24 bytes).
    Removing stm32f10x_iwdg.o(i.IWDG_Enable), (16 bytes).
    Removing stm32f10x_iwdg.o(i.IWDG_GetFlagStatus), (24 bytes).
    Removing stm32f10x_iwdg.o(i.IWDG_ReloadCounter), (16 bytes).
    Removing stm32f10x_iwdg.o(i.IWDG_SetPrescaler), (12 bytes).
    Removing stm32f10x_iwdg.o(i.IWDG_SetReload), (12 bytes).
    Removing stm32f10x_iwdg.o(i.IWDG_WriteAccessCmd), (12 bytes).
    Removing stm32f10x_pwr.o(i.PWR_BackupAccessCmd), (12 bytes).
    Removing stm32f10x_pwr.o(i.PWR_ClearFlag), (20 bytes).
    Removing stm32f10x_pwr.o(i.PWR_DeInit), (22 bytes).
    Removing stm32f10x_pwr.o(i.PWR_EnterSTANDBYMode), (52 bytes).
    Removing stm32f10x_pwr.o(i.PWR_EnterSTOPMode), (64 bytes).
    Removing stm32f10x_pwr.o(i.PWR_GetFlagStatus), (24 bytes).
    Removing stm32f10x_pwr.o(i.PWR_PVDCmd), (12 bytes).
    Removing stm32f10x_pwr.o(i.PWR_PVDLevelConfig), (24 bytes).
    Removing stm32f10x_pwr.o(i.PWR_WakeUpPinCmd), (12 bytes).
    Removing stm32f10x_rcc.o(i.RCC_ADCCLKConfig), (24 bytes).
    Removing stm32f10x_rcc.o(i.RCC_APB1PeriphResetCmd), (32 bytes).
    Removing stm32f10x_rcc.o(i.RCC_APB2PeriphResetCmd), (32 bytes).
    Removing stm32f10x_rcc.o(i.RCC_AdjustHSICalibrationValue), (24 bytes).
    Removing stm32f10x_rcc.o(i.RCC_BackupResetCmd), (12 bytes).
    Removing stm32f10x_rcc.o(i.RCC_ClearFlag), (20 bytes).
    Removing stm32f10x_rcc.o(i.RCC_ClearITPendingBit), (12 bytes).
    Removing stm32f10x_rcc.o(i.RCC_ClockSecuritySystemCmd), (12 bytes).
    Removing stm32f10x_rcc.o(i.RCC_DeInit), (76 bytes).
    Removing stm32f10x_rcc.o(i.RCC_GetFlagStatus), (60 bytes).
    Removing stm32f10x_rcc.o(i.RCC_GetITStatus), (24 bytes).
    Removing stm32f10x_rcc.o(i.RCC_GetSYSCLKSource), (16 bytes).
    Removing stm32f10x_rcc.o(i.RCC_HCLKConfig), (24 bytes).
    Removing stm32f10x_rcc.o(i.RCC_HSEConfig), (76 bytes).
    Removing stm32f10x_rcc.o(i.RCC_HSICmd), (12 bytes).
    Removing stm32f10x_rcc.o(i.RCC_ITConfig), (36 bytes).
    Removing stm32f10x_rcc.o(i.RCC_LSEConfig), (52 bytes).
    Removing stm32f10x_rcc.o(i.RCC_LSICmd), (12 bytes).
    Removing stm32f10x_rcc.o(i.RCC_MCOConfig), (12 bytes).
    Removing stm32f10x_rcc.o(i.RCC_PCLK1Config), (24 bytes).
    Removing stm32f10x_rcc.o(i.RCC_PCLK2Config), (24 bytes).
    Removing stm32f10x_rcc.o(i.RCC_PLLCmd), (12 bytes).
    Removing stm32f10x_rcc.o(i.RCC_PLLConfig), (28 bytes).
    Removing stm32f10x_rcc.o(i.RCC_RTCCLKCmd), (12 bytes).
    Removing stm32f10x_rcc.o(i.RCC_RTCCLKConfig), (16 bytes).
    Removing stm32f10x_rcc.o(i.RCC_SYSCLKConfig), (24 bytes).
    Removing stm32f10x_rcc.o(i.RCC_WaitForHSEStartUp), (48 bytes).
    Removing stm32f10x_rtc.o(i.RTC_ClearFlag), (20 bytes).
    Removing stm32f10x_rtc.o(i.RTC_ClearITPendingBit), (20 bytes).
    Removing stm32f10x_rtc.o(i.RTC_EnterConfigMode), (20 bytes).
    Removing stm32f10x_rtc.o(i.RTC_ExitConfigMode), (20 bytes).
    Removing stm32f10x_rtc.o(i.RTC_GetCounter), (20 bytes).
    Removing stm32f10x_rtc.o(i.RTC_GetDivider), (24 bytes).
    Removing stm32f10x_rtc.o(i.RTC_GetFlagStatus), (24 bytes).
    Removing stm32f10x_rtc.o(i.RTC_GetITStatus), (36 bytes).
    Removing stm32f10x_rtc.o(i.RTC_ITConfig), (36 bytes).
    Removing stm32f10x_rtc.o(i.RTC_SetAlarm), (28 bytes).
    Removing stm32f10x_rtc.o(i.RTC_SetCounter), (28 bytes).
    Removing stm32f10x_rtc.o(i.RTC_SetPrescaler), (32 bytes).
    Removing stm32f10x_rtc.o(i.RTC_WaitForLastTask), (20 bytes).
    Removing stm32f10x_rtc.o(i.RTC_WaitForSynchro), (32 bytes).
    Removing stm32f10x_sdio.o(i.SDIO_CEATAITCmd), (16 bytes).
    Removing stm32f10x_sdio.o(i.SDIO_ClearFlag), (12 bytes).
    Removing stm32f10x_sdio.o(i.SDIO_ClearITPendingBit), (12 bytes).
    Removing stm32f10x_sdio.o(i.SDIO_ClockCmd), (12 bytes).
    Removing stm32f10x_sdio.o(i.SDIO_CmdStructInit), (14 bytes).
    Removing stm32f10x_sdio.o(i.SDIO_CommandCompletionCmd), (12 bytes).
    Removing stm32f10x_sdio.o(i.SDIO_DMACmd), (12 bytes).
    Removing stm32f10x_sdio.o(i.SDIO_DataConfig), (48 bytes).
    Removing stm32f10x_sdio.o(i.SDIO_DataStructInit), (20 bytes).
    Removing stm32f10x_sdio.o(i.SDIO_DeInit), (36 bytes).
    Removing stm32f10x_sdio.o(i.SDIO_GetCommandResponse), (12 bytes).
    Removing stm32f10x_sdio.o(i.SDIO_GetDataCounter), (12 bytes).
    Removing stm32f10x_sdio.o(i.SDIO_GetFIFOCount), (12 bytes).
    Removing stm32f10x_sdio.o(i.SDIO_GetFlagStatus), (24 bytes).
    Removing stm32f10x_sdio.o(i.SDIO_GetITStatus), (24 bytes).
    Removing stm32f10x_sdio.o(i.SDIO_GetPowerState), (16 bytes).
    Removing stm32f10x_sdio.o(i.SDIO_GetResponse), (16 bytes).
    Removing stm32f10x_sdio.o(i.SDIO_ITConfig), (32 bytes).
    Removing stm32f10x_sdio.o(i.SDIO_Init), (48 bytes).
    Removing stm32f10x_sdio.o(i.SDIO_ReadData), (12 bytes).
    Removing stm32f10x_sdio.o(i.SDIO_SendCEATACmd), (12 bytes).
    Removing stm32f10x_sdio.o(i.SDIO_SendCommand), (44 bytes).
    Removing stm32f10x_sdio.o(i.SDIO_SendSDIOSuspendCmd), (12 bytes).
    Removing stm32f10x_sdio.o(i.SDIO_SetPowerState), (28 bytes).
    Removing stm32f10x_sdio.o(i.SDIO_SetSDIOOperation), (12 bytes).
    Removing stm32f10x_sdio.o(i.SDIO_SetSDIOReadWaitMode), (12 bytes).
    Removing stm32f10x_sdio.o(i.SDIO_StartSDIOReadWait), (12 bytes).
    Removing stm32f10x_sdio.o(i.SDIO_StopSDIOReadWait), (12 bytes).
    Removing stm32f10x_sdio.o(i.SDIO_StructInit), (16 bytes).
    Removing stm32f10x_sdio.o(i.SDIO_WriteData), (12 bytes).
    Removing stm32f10x_spi.o(i.I2S_Cmd), (24 bytes).
    Removing stm32f10x_spi.o(i.I2S_Init), (228 bytes).
    Removing stm32f10x_spi.o(i.I2S_StructInit), (20 bytes).
    Removing stm32f10x_spi.o(i.SPI_BiDirectionalLineConfig), (28 bytes).
    Removing stm32f10x_spi.o(i.SPI_CalculateCRC), (24 bytes).
    Removing stm32f10x_spi.o(i.SPI_DataSizeConfig), (18 bytes).
    Removing stm32f10x_spi.o(i.SPI_GetCRC), (16 bytes).
    Removing stm32f10x_spi.o(i.SPI_GetCRCPolynomial), (6 bytes).
    Removing stm32f10x_spi.o(i.SPI_I2S_ClearFlag), (6 bytes).
    Removing stm32f10x_spi.o(i.SPI_I2S_ClearITPendingBit), (20 bytes).
    Removing stm32f10x_spi.o(i.SPI_I2S_DMACmd), (24 bytes).
    Removing stm32f10x_spi.o(i.SPI_I2S_DeInit), (88 bytes).
    Removing stm32f10x_spi.o(i.SPI_I2S_GetITStatus), (52 bytes).
    Removing stm32f10x_spi.o(i.SPI_I2S_ITConfig), (36 bytes).
    Removing stm32f10x_spi.o(i.SPI_I2S_ReceiveData), (6 bytes).
    Removing stm32f10x_spi.o(i.SPI_NSSInternalSoftwareConfig), (30 bytes).
    Removing stm32f10x_spi.o(i.SPI_SSOutputCmd), (24 bytes).
    Removing stm32f10x_spi.o(i.SPI_StructInit), (24 bytes).
    Removing stm32f10x_spi.o(i.SPI_TransmitCRC), (10 bytes).
    Removing stm32f10x_tim.o(i.TI1_Config), (128 bytes).
    Removing stm32f10x_tim.o(i.TI2_Config), (140 bytes).
    Removing stm32f10x_tim.o(i.TI3_Config), (136 bytes).
    Removing stm32f10x_tim.o(i.TI4_Config), (140 bytes).
    Removing stm32f10x_tim.o(i.TIM_ARRPreloadConfig), (24 bytes).
    Removing stm32f10x_tim.o(i.TIM_BDTRConfig), (32 bytes).
    Removing stm32f10x_tim.o(i.TIM_BDTRStructInit), (18 bytes).
    Removing stm32f10x_tim.o(i.TIM_CCPreloadControl), (24 bytes).
    Removing stm32f10x_tim.o(i.TIM_CCxCmd), (34 bytes).
    Removing stm32f10x_tim.o(i.TIM_CCxNCmd), (34 bytes).
    Removing stm32f10x_tim.o(i.TIM_ClearFlag), (6 bytes).
    Removing stm32f10x_tim.o(i.TIM_ClearOC1Ref), (18 bytes).
    Removing stm32f10x_tim.o(i.TIM_ClearOC2Ref), (20 bytes).
    Removing stm32f10x_tim.o(i.TIM_ClearOC3Ref), (18 bytes).
    Removing stm32f10x_tim.o(i.TIM_ClearOC4Ref), (20 bytes).
    Removing stm32f10x_tim.o(i.TIM_CounterModeConfig), (18 bytes).
    Removing stm32f10x_tim.o(i.TIM_CtrlPWMOutputs), (30 bytes).
    Removing stm32f10x_tim.o(i.TIM_DMACmd), (24 bytes).
    Removing stm32f10x_tim.o(i.TIM_DMAConfig), (10 bytes).
    Removing stm32f10x_tim.o(i.TIM_DeInit), (488 bytes).
    Removing stm32f10x_tim.o(i.TIM_ETRClockMode1Config), (54 bytes).
    Removing stm32f10x_tim.o(i.TIM_ETRClockMode2Config), (32 bytes).
    Removing stm32f10x_tim.o(i.TIM_ETRConfig), (24 bytes).
    Removing stm32f10x_tim.o(i.TIM_EncoderInterfaceConfig), (62 bytes).
    Removing stm32f10x_tim.o(i.TIM_ForcedOC1Config), (18 bytes).
    Removing stm32f10x_tim.o(i.TIM_ForcedOC2Config), (22 bytes).
    Removing stm32f10x_tim.o(i.TIM_ForcedOC3Config), (18 bytes).
    Removing stm32f10x_tim.o(i.TIM_ForcedOC4Config), (22 bytes).
    Removing stm32f10x_tim.o(i.TIM_GenerateEvent), (4 bytes).
    Removing stm32f10x_tim.o(i.TIM_GetCapture1), (6 bytes).
    Removing stm32f10x_tim.o(i.TIM_GetCapture2), (6 bytes).
    Removing stm32f10x_tim.o(i.TIM_GetCapture3), (6 bytes).
    Removing stm32f10x_tim.o(i.TIM_GetCapture4), (8 bytes).
    Removing stm32f10x_tim.o(i.TIM_GetCounter), (6 bytes).
    Removing stm32f10x_tim.o(i.TIM_GetFlagStatus), (18 bytes).
    Removing stm32f10x_tim.o(i.TIM_GetPrescaler), (6 bytes).
    Removing stm32f10x_tim.o(i.TIM_ICInit), (172 bytes).
    Removing stm32f10x_tim.o(i.TIM_ICStructInit), (18 bytes).
    Removing stm32f10x_tim.o(i.TIM_ITRxExternalClockConfig), (24 bytes).
    Removing stm32f10x_tim.o(i.TIM_InternalClockConfig), (12 bytes).
    Removing stm32f10x_tim.o(i.TIM_OC1FastConfig), (18 bytes).
    Removing stm32f10x_tim.o(i.TIM_OC1Init), (152 bytes).
    Removing stm32f10x_tim.o(i.TIM_OC1NPolarityConfig), (18 bytes).
    Removing stm32f10x_tim.o(i.TIM_OC1PolarityConfig), (18 bytes).
    Removing stm32f10x_tim.o(i.TIM_OC1PreloadConfig), (18 bytes).
    Removing stm32f10x_tim.o(i.TIM_OC2FastConfig), (22 bytes).
    Removing stm32f10x_tim.o(i.TIM_OC2Init), (156 bytes).
    Removing stm32f10x_tim.o(i.TIM_OC2NPolarityConfig), (22 bytes).
    Removing stm32f10x_tim.o(i.TIM_OC2PolarityConfig), (22 bytes).
    Removing stm32f10x_tim.o(i.TIM_OC2PreloadConfig), (22 bytes).
    Removing stm32f10x_tim.o(i.TIM_OC3FastConfig), (18 bytes).
    Removing stm32f10x_tim.o(i.TIM_OC3Init), (152 bytes).
    Removing stm32f10x_tim.o(i.TIM_OC3NPolarityConfig), (22 bytes).
    Removing stm32f10x_tim.o(i.TIM_OC3PolarityConfig), (22 bytes).
    Removing stm32f10x_tim.o(i.TIM_OC3PreloadConfig), (18 bytes).
    Removing stm32f10x_tim.o(i.TIM_OC4FastConfig), (22 bytes).
    Removing stm32f10x_tim.o(i.TIM_OC4Init), (116 bytes).
    Removing stm32f10x_tim.o(i.TIM_OC4PolarityConfig), (22 bytes).
    Removing stm32f10x_tim.o(i.TIM_OC4PreloadConfig), (22 bytes).
    Removing stm32f10x_tim.o(i.TIM_OCStructInit), (20 bytes).
    Removing stm32f10x_tim.o(i.TIM_PWMIConfig), (124 bytes).
    Removing stm32f10x_tim.o(i.TIM_PrescalerConfig), (6 bytes).
    Removing stm32f10x_tim.o(i.TIM_SelectCCDMA), (24 bytes).
    Removing stm32f10x_tim.o(i.TIM_SelectCOM), (24 bytes).
    Removing stm32f10x_tim.o(i.TIM_SelectHallSensor), (24 bytes).
    Removing stm32f10x_tim.o(i.TIM_SelectInputTrigger), (18 bytes).
    Removing stm32f10x_tim.o(i.TIM_SelectMasterSlaveMode), (18 bytes).
    Removing stm32f10x_tim.o(i.TIM_SelectOCxM), (82 bytes).
    Removing stm32f10x_tim.o(i.TIM_SelectOnePulseMode), (18 bytes).
    Removing stm32f10x_tim.o(i.TIM_SelectOutputTrigger), (18 bytes).
    Removing stm32f10x_tim.o(i.TIM_SelectSlaveMode), (18 bytes).
    Removing stm32f10x_tim.o(i.TIM_SetAutoreload), (4 bytes).
    Removing stm32f10x_tim.o(i.TIM_SetClockDivision), (18 bytes).
    Removing stm32f10x_tim.o(i.TIM_SetCompare1), (4 bytes).
    Removing stm32f10x_tim.o(i.TIM_SetCompare2), (4 bytes).
    Removing stm32f10x_tim.o(i.TIM_SetCompare3), (4 bytes).
    Removing stm32f10x_tim.o(i.TIM_SetCompare4), (6 bytes).
    Removing stm32f10x_tim.o(i.TIM_SetCounter), (4 bytes).
    Removing stm32f10x_tim.o(i.TIM_SetIC1Prescaler), (18 bytes).
    Removing stm32f10x_tim.o(i.TIM_SetIC2Prescaler), (22 bytes).
    Removing stm32f10x_tim.o(i.TIM_SetIC3Prescaler), (18 bytes).
    Removing stm32f10x_tim.o(i.TIM_SetIC4Prescaler), (22 bytes).
    Removing stm32f10x_tim.o(i.TIM_TIxExternalClockConfig), (62 bytes).
    Removing stm32f10x_tim.o(i.TIM_TimeBaseStructInit), (18 bytes).
    Removing stm32f10x_tim.o(i.TIM_UpdateDisableConfig), (24 bytes).
    Removing stm32f10x_tim.o(i.TIM_UpdateRequestConfig), (24 bytes).
    Removing stm32f10x_usart.o(i.USART_ClockInit), (34 bytes).
    Removing stm32f10x_usart.o(i.USART_ClockStructInit), (12 bytes).
    Removing stm32f10x_usart.o(i.USART_DMACmd), (24 bytes).
    Removing stm32f10x_usart.o(i.USART_DeInit), (156 bytes).
    Removing stm32f10x_usart.o(i.USART_GetFlagStatus), (26 bytes).
    Removing stm32f10x_usart.o(i.USART_HalfDuplexCmd), (24 bytes).
    Removing stm32f10x_usart.o(i.USART_IrDACmd), (24 bytes).
    Removing stm32f10x_usart.o(i.USART_IrDAConfig), (18 bytes).
    Removing stm32f10x_usart.o(i.USART_LINBreakDetectLengthConfig), (18 bytes).
    Removing stm32f10x_usart.o(i.USART_LINCmd), (24 bytes).
    Removing stm32f10x_usart.o(i.USART_OneBitMethodCmd), (24 bytes).
    Removing stm32f10x_usart.o(i.USART_OverSampling8Cmd), (22 bytes).
    Removing stm32f10x_usart.o(i.USART_ReceiverWakeUpCmd), (24 bytes).
    Removing stm32f10x_usart.o(i.USART_SendBreak), (10 bytes).
    Removing stm32f10x_usart.o(i.USART_SendData), (8 bytes).
    Removing stm32f10x_usart.o(i.USART_SetAddress), (18 bytes).
    Removing stm32f10x_usart.o(i.USART_SetGuardTime), (16 bytes).
    Removing stm32f10x_usart.o(i.USART_SetPrescaler), (16 bytes).
    Removing stm32f10x_usart.o(i.USART_SmartCardCmd), (24 bytes).
    Removing stm32f10x_usart.o(i.USART_SmartCardNACKCmd), (24 bytes).
    Removing stm32f10x_usart.o(i.USART_StructInit), (24 bytes).
    Removing stm32f10x_usart.o(i.USART_WakeUpConfig), (18 bytes).
    Removing stm32f10x_wwdg.o(i.WWDG_ClearFlag), (12 bytes).
    Removing stm32f10x_wwdg.o(i.WWDG_DeInit), (22 bytes).
    Removing stm32f10x_wwdg.o(i.WWDG_Enable), (16 bytes).
    Removing stm32f10x_wwdg.o(i.WWDG_EnableIT), (12 bytes).
    Removing stm32f10x_wwdg.o(i.WWDG_GetFlagStatus), (12 bytes).
    Removing stm32f10x_wwdg.o(i.WWDG_SetCounter), (16 bytes).
    Removing stm32f10x_wwdg.o(i.WWDG_SetPrescaler), (24 bytes).
    Removing stm32f10x_wwdg.o(i.WWDG_SetWindowValue), (28 bytes).
    Removing stm32f10x_it.o(.bss), (10 bytes).
    Removing displaydriver.o(i.DrawPixel), (32 bytes).
    Removing displaydriver.o(i.LCD_WR_REG), (16 bytes).
    Removing displaydriver.o(i.Lcd_Display_Clear), (40 bytes).
    Removing displaydriver.o(i.Lcd_WR_Start), (8 bytes).
    Removing displaydriver.o(i.ReadPixel), (160 bytes).
    Removing displaydriver.o(i.ssd1289_GetPoint), (40 bytes).
    Removing displaydriver.o(.bss), (70 bytes).
    Removing font.o(i.DisplayDriver_Clear), (48 bytes).
    Removing font.o(i.LCD_Display_Clear), (20 bytes).
    Removing scanmotordriver.o(i.ScanMotorDriver_NVIC_Configuration), (40 bytes).
    Removing scanmotordriver.o(i.ScanMotorDriver_StartDetection), (18 bytes).
    Removing rotationmotordriver_positionsensor.o(i.RotaMotorDriver_PositionSensor_Int_Enable), (32 bytes).
    Removing common.o(i.SoftReset), (48 bytes).
    Removing qrcode.o(i.QRCode_Identify), (84 bytes).
    Removing qrcode.o(i.QRCode_Received), (176 bytes).
    Removing qrcode.o(i.QRCode_Restart), (20 bytes).
    Removing systemmanage_rtc.o(i.PCF8563_ReaDAdress), (56 bytes).
    Removing systemmanage_rtc.o(i.PCF8563_Set), (322 bytes).
    Removing systemmanage_rtc.o(i.PCF8563_WriteAdress), (46 bytes).
    Removing systemmanage_rtc.o(i.SystemManage_RTC_Get), (16 bytes).
    Removing systemmanage_rtc.o(i.SystemManage_RTC_Set), (42 bytes).
    Removing signalprocess_sample.o(i.SignalSample_Clear_Buffer), (28 bytes).
    Removing signalprocess_sample.o(i.SignalSample_GetVbat), (188 bytes).
    Removing signalprocess_sample.o(i.SignalSample_OutputUint16_4C1S), (2 bytes).
    Removing signalprocess_sample.o(i.SignalSample_OutputUint16_Each), (116 bytes).
    Removing signalprocess_sample.o(i.SignalSample_Sample_IsStripInserted), (24 bytes).
    Removing signalprocess_sample.o(i.SignalSample_Sample_Strip_Sensor_Int), (32 bytes).
    Removing signalprocess_sample.o(i.SignalSample_Sample_Vbat), (12 bytes).
    Removing comm_fifo.o(i.Comm_FIFO_RxDataGet), (136 bytes).
    Removing comm_fifo.o(i.Comm_FIFO_TxDataGet), (120 bytes).
    Removing comm_fifo.o(i.Comm_FIFO_TxDataPut), (108 bytes).
    Removing hw_config.o(i.Enter_LowPowerMode), (12 bytes).
    Removing hw_config.o(.bss), (16 bytes).
    Removing usb_pwr.o(i.PowerOff), (32 bytes).
    Removing stmflash.o(i.STMFlash_Read), (34 bytes).
    Removing stmflash.o(i.STMFlash_ReadHalfWord), (6 bytes).
    Removing stmflash.o(i.STMFlash_Write), (232 bytes).
    Removing stmflash.o(i.STMFlash_Write_NoCheck), (38 bytes).
    Removing stmflash.o(.bss), (2048 bytes).
    Removing usb.o(i.USB_VirtualCOM_Process), (56 bytes).
    Removing hostcomm.o(i.HiByte), (6 bytes).
    Removing hostcomm.o(i.HostComm_Cmd_Process), (276 bytes).
    Removing hostcomm.o(i.HostComm_Cmd_Respond_APP_Error), (28 bytes).
    Removing hostcomm.o(i.HostComm_Cmd_Respond_APP_LaunchBL), (24 bytes).
    Removing hostcomm.o(i.HostComm_Cmd_Respond_APP_ReadIDCard), (4 bytes).
    Removing hostcomm.o(i.HostComm_Cmd_Respond_APP_ReadRecords_PerDate), (4 bytes).
    Removing hostcomm.o(i.HostComm_Cmd_Respond_APP_ReadResistor), (4 bytes).
    Removing hostcomm.o(i.HostComm_Cmd_Respond_APP_SetBLEName), (32 bytes).
    Removing hostcomm.o(i.HostComm_Cmd_Respond_APP_SetCalcParameters), (4 bytes).
    Removing hostcomm.o(i.HostComm_Cmd_Respond_APP_SetLanguage), (4 bytes).
    Removing hostcomm.o(i.HostComm_Cmd_Respond_APP_SetMFG), (4 bytes).
    Removing hostcomm.o(i.HostComm_Cmd_Respond_APP_SetMode), (4 bytes).
    Removing hostcomm.o(i.HostComm_Cmd_Respond_APP_SetOutFab), (4 bytes).
    Removing hostcomm.o(i.HostComm_Cmd_Respond_APP_SetOutputData), (48 bytes).
    Removing hostcomm.o(i.HostComm_Cmd_Respond_APP_SetPrinter), (4 bytes).
    Removing hostcomm.o(i.HostComm_Cmd_Respond_APP_SetTime), (112 bytes).
    Removing hostcomm.o(i.HostComm_Cmd_Respond_APP_StartStop_ReadRecords), (4 bytes).
    Removing hostcomm.o(i.HostComm_Cmd_Respond_APP_SysInfo), (68 bytes).
    Removing hostcomm.o(i.HostComm_Cmd_Respond_APP_WriteIDCard), (4 bytes).
    Removing hostcomm.o(i.HostComm_Cmd_Respond_APP_WriteResistor), (4 bytes).
    Removing hostcomm.o(i.HostComm_Cmd_Respond_Common), (108 bytes).
    Removing hostcomm.o(i.HostComm_Cmd_Respond_Status), (36 bytes).
    Removing hostcomm.o(i.HostComm_Process), (24 bytes).
    Removing hostcomm.o(i.HostComm_Report_ReadRecords), (56 bytes).
    Removing hostcomm.o(i.HostComm_Report_ReadRecords_LastOne), (36 bytes).
    Removing hostcomm.o(i.HostComm_Send), (262 bytes).
    Removing hostcomm.o(i.HostComm_SendResp), (48 bytes).
    Removing hostcomm.o(i.HostComm_SendThrUSB), (36 bytes).
    Removing hostcomm.o(i.HostComm_Send_Char), (32 bytes).
    Removing hostcomm.o(i.HostComm_Send_LIS), (34 bytes).
    Removing hostcomm.o(i.HostComm_Send_String), (22 bytes).
    Removing hostcomm.o(i.LoByte), (6 bytes).
    Removing hostcomm.o(i.itoa), (100 bytes).
    Removing usb_int.o(i.CTR_HP), (184 bytes).
    Removing usb_regs.o(i.ClearEPDoubleBuff), (32 bytes).
    Removing usb_regs.o(i.ClearEP_CTR_RX), (28 bytes).
    Removing usb_regs.o(i.ClearEP_CTR_TX), (28 bytes).
    Removing usb_regs.o(i.ClearEP_KIND), (32 bytes).
    Removing usb_regs.o(i.FreeUserBuffer), (68 bytes).
    Removing usb_regs.o(i.GetBTABLE), (12 bytes).
    Removing usb_regs.o(i.GetCNTR), (12 bytes).
    Removing usb_regs.o(i.GetDADDR), (12 bytes).
    Removing usb_regs.o(i.GetENDPOINT), (16 bytes).
    Removing usb_regs.o(i.GetEPAddress), (20 bytes).
    Removing usb_regs.o(i.GetEPDblBuf0Addr), (32 bytes).
    Removing usb_regs.o(i.GetEPDblBuf0Count), (36 bytes).
    Removing usb_regs.o(i.GetEPDblBuf1Addr), (32 bytes).
    Removing usb_regs.o(i.GetEPDblBuf1Count), (36 bytes).
    Removing usb_regs.o(i.GetEPDblBufDir), (72 bytes).
    Removing usb_regs.o(i.GetEPRxStatus), (20 bytes).
    Removing usb_regs.o(i.GetEPTxCount), (36 bytes).
    Removing usb_regs.o(i.GetEPTxStatus), (20 bytes).
    Removing usb_regs.o(i.GetEPType), (20 bytes).
    Removing usb_regs.o(i.GetFNR), (12 bytes).
    Removing usb_regs.o(i.GetISTR), (12 bytes).
    Removing usb_regs.o(i.GetRxStallStatus), (32 bytes).
    Removing usb_regs.o(i.GetTxStallStatus), (28 bytes).
    Removing usb_regs.o(i.SetCNTR), (12 bytes).
    Removing usb_regs.o(i.SetDADDR), (12 bytes).
    Removing usb_regs.o(i.SetDouBleBuffEPStall), (52 bytes).
    Removing usb_regs.o(i.SetENDPOINT), (12 bytes).
    Removing usb_regs.o(i.SetEPAddress), (36 bytes).
    Removing usb_regs.o(i.SetEPCountRxReg), (48 bytes).
    Removing usb_regs.o(i.SetEPDblBuf0Addr), (32 bytes).
    Removing usb_regs.o(i.SetEPDblBuf0Count), (104 bytes).
    Removing usb_regs.o(i.SetEPDblBuf1Addr), (36 bytes).
    Removing usb_regs.o(i.SetEPDblBuf1Count), (104 bytes).
    Removing usb_regs.o(i.SetEPDblBuffAddr), (52 bytes).
    Removing usb_regs.o(i.SetEPDblBuffCount), (196 bytes).
    Removing usb_regs.o(i.SetEPDoubleBuff), (36 bytes).
    Removing usb_regs.o(i.SetEP_KIND), (36 bytes).
    Removing usb_regs.o(i.SetISTR), (12 bytes).
    Removing usb_regs.o(i.Set_Status_Out), (36 bytes).
    Removing usb_regs.o(i.ToWord), (8 bytes).
    Removing usb_regs.o(i.ToggleDTOG_RX), (32 bytes).
    Removing usb_regs.o(i.ToggleDTOG_TX), (32 bytes).
    Removing usb_sil.o(i.USB_SIL_Write), (46 bytes).
    Removing fadd.o(.text), (176 bytes).
    Removing fmul.o(.text), (108 bytes).
    Removing dadd.o(.text), (332 bytes).
    Removing dmul.o(.text), (224 bytes).
    Removing ddiv.o(.text), (222 bytes).
    Removing ffltui.o(.text), (10 bytes).
    Removing dfixui.o(.text), (46 bytes).
    Removing f2d.o(.text), (44 bytes).
    Removing cdcmple.o(.text), (40 bytes).
    Removing cdrcmple.o(.text), (40 bytes).
    Removing fepilogue.o(.text), (108 bytes).
    Removing depilogue.o(.text), (190 bytes).
    Removing dfixul.o(.text), (48 bytes).

562 unused section(s) (total 26454 bytes) removed from the image.

==============================================================================

Image Symbol Table

    Local Symbols

    Symbol Name                              Value     Ov Type        Size  Object(Section)

    ../../../cmprslib/zerorunl2.c            0x00000000   Number         0  __dczerorl2.o ABSOLUTE
    ../../microlib/division.c                0x00000000   Number         0  uidiv.o ABSOLUTE
    ../../microlib/division.c                0x00000000   Number         0  uldiv.o ABSOLUTE
    ../../microlib/f2d.c                     0x00000000   Number         0  f2d.o ABSOLUTE
    ../../microlib/fpadd.c                   0x00000000   Number         0  dadd.o ABSOLUTE
    ../../microlib/fpadd.c                   0x00000000   Number         0  fadd.o ABSOLUTE
    ../../microlib/fpdiv.c                   0x00000000   Number         0  ddiv.o ABSOLUTE
    ../../microlib/fpepilogue.c              0x00000000   Number         0  fepilogue.o ABSOLUTE
    ../../microlib/fpepilogue.c              0x00000000   Number         0  depilogue.o ABSOLUTE
    ../../microlib/fpfix.c                   0x00000000   Number         0  dfixui.o ABSOLUTE
    ../../microlib/fpfix.c                   0x00000000   Number         0  dfixul.o ABSOLUTE
    ../../microlib/fpflt.c                   0x00000000   Number         0  ffltui.o ABSOLUTE
    ../../microlib/fpmul.c                   0x00000000   Number         0  fmul.o ABSOLUTE
    ../../microlib/fpmul.c                   0x00000000   Number         0  dmul.o ABSOLUTE
    ../../microlib/init/entry.s              0x00000000   Number         0  entry2.o ABSOLUTE
    ../../microlib/init/entry.s              0x00000000   Number         0  entry8.o ABSOLUTE
    ../../microlib/init/entry.s              0x00000000   Number         0  entry7b.o ABSOLUTE
    ../../microlib/init/entry.s              0x00000000   Number         0  entry7a.o ABSOLUTE
    ../../microlib/init/entry.s              0x00000000   Number         0  entry5.o ABSOLUTE
    ../../microlib/init/entry.s              0x00000000   Number         0  entry.o ABSOLUTE
    ../../microlib/longlong.c                0x00000000   Number         0  llshl.o ABSOLUTE
    ../../microlib/longlong.c                0x00000000   Number         0  llushr.o ABSOLUTE
    ../../microlib/longlong.c                0x00000000   Number         0  llsshr.o ABSOLUTE
    ../../microlib/printf/printf.c           0x00000000   Number         0  printfb.o ABSOLUTE
    ../../microlib/printf/printf.c           0x00000000   Number         0  printf1.o ABSOLUTE
    ../../microlib/printf/printf.c           0x00000000   Number         0  printf2.o ABSOLUTE
    ../../microlib/printf/printf.c           0x00000000   Number         0  printf3.o ABSOLUTE
    ../../microlib/printf/printf.c           0x00000000   Number         0  printf4.o ABSOLUTE
    ../../microlib/printf/printf.c           0x00000000   Number         0  printf0.o ABSOLUTE
    ../../microlib/printf/printf.c           0x00000000   Number         0  printf5.o ABSOLUTE
    ../../microlib/printf/printf.c           0x00000000   Number         0  printf6.o ABSOLUTE
    ../../microlib/printf/printf.c           0x00000000   Number         0  printf7.o ABSOLUTE
    ../../microlib/printf/printf.c           0x00000000   Number         0  printf8.o ABSOLUTE
    ../../microlib/printf/printf.c           0x00000000   Number         0  printfa.o ABSOLUTE
    ../../microlib/printf/stubs.s            0x00000000   Number         0  stubs.o ABSOLUTE
    ../../microlib/stdio/fputc.c             0x00000000   Number         0  fputc.o ABSOLUTE
    ../../microlib/stdio/semi.s              0x00000000   Number         0  semi.o ABSOLUTE
    ../../microlib/stdio/streams.c           0x00000000   Number         0  stdout.o ABSOLUTE
    ../../microlib/string/memcpy.c           0x00000000   Number         0  memcpya.o ABSOLUTE
    ../../microlib/string/memcpy.c           0x00000000   Number         0  memcpyb.o ABSOLUTE
    ../../microlib/string/memset.c           0x00000000   Number         0  memseta.o ABSOLUTE
    ../../microlib/stubs.s                   0x00000000   Number         0  iusefp.o ABSOLUTE
    ../../microlib/stubs.s                   0x00000000   Number         0  iusesemip.o ABSOLUTE
    ISR\stm32f10x_it.c                       0x00000000   Number         0  stm32f10x_it.o ABSOLUTE
    Main\main.c                              0x00000000   Number         0  main.o ABSOLUTE
    Management\Common_CRC\Common.c           0x00000000   Number         0  common.o ABSOLUTE
    Management\DisplayDriver\DisplayDriver.c 0x00000000   Number         0  displaydriver.o ABSOLUTE
    Management\DisplayDriver\DisplayDriver_FontLib.c 0x00000000   Number         0  displaydriver_fontlib.o ABSOLUTE
    Management\DisplayDriver\Font.c          0x00000000   Number         0  font.o ABSOLUTE
    Management\HumanInput\HumanInput.c       0x00000000   Number         0  humaninput.o ABSOLUTE
    Management\Interface\Interface_Insert_Cup.c 0x00000000   Number         0  interface_insert_cup.o ABSOLUTE
    Management\Interface\Interface_Quick.c   0x00000000   Number         0  interface_quick.o ABSOLUTE
    Management\Interface\Interface_Record.c  0x00000000   Number         0  interface_record.o ABSOLUTE
    Management\Interface\Interface_Result.c  0x00000000   Number         0  interface_result.o ABSOLUTE
    Management\Interface\Interface_Result_2.c 0x00000000   Number         0  interface_result_2.o ABSOLUTE
    Management\Interface\Interface_Setting.c 0x00000000   Number         0  interface_setting.o ABSOLUTE
    Management\Interface\Interface_Standard.c 0x00000000   Number         0  interface_standard.o ABSOLUTE
    Management\Interface\Interface_Start.c   0x00000000   Number         0  interface_start.o ABSOLUTE
    Management\Interface\Interface_Testing.c 0x00000000   Number         0  interface_testing.o ABSOLUTE
    Management\Interface\Interface_main.c    0x00000000   Number         0  interface_main.o ABSOLUTE
    Management\QRCode\QRCode.c               0x00000000   Number         0  qrcode.o ABSOLUTE
    Management\RotationMotor\RotationMotor.c 0x00000000   Number         0  rotationmotor.o ABSOLUTE
    Management\RotationMotor\RotationMotorDriver_PositionSensor.c 0x00000000   Number         0  rotationmotordriver_positionsensor.o ABSOLUTE
    Management\ScanMotor\ScanMotorDriver.c   0x00000000   Number         0  scanmotordriver.o ABSOLUTE
    Management\ScanMotor\ScanMotorDriver_PositionSensor.c 0x00000000   Number         0  scanmotordriver_positionsensor.o ABSOLUTE
    Management\SignalProcess_Sample\SignalProcess_Sample.c 0x00000000   Number         0  signalprocess_sample.o ABSOLUTE
    Management\SystemManage_RTC\SystemManage_RTC.c 0x00000000   Number         0  systemmanage_rtc.o ABSOLUTE
    System\CM3\core_cm3.c                    0x00000000   Number         0  core_cm3.o ABSOLUTE
    System\CM3\system_stm32f10x.c            0x00000000   Number         0  system_stm32f10x.o ABSOLUTE
    System\FWlib\src\misc.c                  0x00000000   Number         0  misc.o ABSOLUTE
    System\FWlib\src\stm32f10x_adc.c         0x00000000   Number         0  stm32f10x_adc.o ABSOLUTE
    System\FWlib\src\stm32f10x_bkp.c         0x00000000   Number         0  stm32f10x_bkp.o ABSOLUTE
    System\FWlib\src\stm32f10x_can.c         0x00000000   Number         0  stm32f10x_can.o ABSOLUTE
    System\FWlib\src\stm32f10x_cec.c         0x00000000   Number         0  stm32f10x_cec.o ABSOLUTE
    System\FWlib\src\stm32f10x_crc.c         0x00000000   Number         0  stm32f10x_crc.o ABSOLUTE
    System\FWlib\src\stm32f10x_dac.c         0x00000000   Number         0  stm32f10x_dac.o ABSOLUTE
    System\FWlib\src\stm32f10x_dbgmcu.c      0x00000000   Number         0  stm32f10x_dbgmcu.o ABSOLUTE
    System\FWlib\src\stm32f10x_dma.c         0x00000000   Number         0  stm32f10x_dma.o ABSOLUTE
    System\FWlib\src\stm32f10x_exti.c        0x00000000   Number         0  stm32f10x_exti.o ABSOLUTE
    System\FWlib\src\stm32f10x_flash.c       0x00000000   Number         0  stm32f10x_flash.o ABSOLUTE
    System\FWlib\src\stm32f10x_fsmc.c        0x00000000   Number         0  stm32f10x_fsmc.o ABSOLUTE
    System\FWlib\src\stm32f10x_gpio.c        0x00000000   Number         0  stm32f10x_gpio.o ABSOLUTE
    System\FWlib\src\stm32f10x_i2c.c         0x00000000   Number         0  stm32f10x_i2c.o ABSOLUTE
    System\FWlib\src\stm32f10x_iwdg.c        0x00000000   Number         0  stm32f10x_iwdg.o ABSOLUTE
    System\FWlib\src\stm32f10x_pwr.c         0x00000000   Number         0  stm32f10x_pwr.o ABSOLUTE
    System\FWlib\src\stm32f10x_rcc.c         0x00000000   Number         0  stm32f10x_rcc.o ABSOLUTE
    System\FWlib\src\stm32f10x_rtc.c         0x00000000   Number         0  stm32f10x_rtc.o ABSOLUTE
    System\FWlib\src\stm32f10x_sdio.c        0x00000000   Number         0  stm32f10x_sdio.o ABSOLUTE
    System\FWlib\src\stm32f10x_spi.c         0x00000000   Number         0  stm32f10x_spi.o ABSOLUTE
    System\FWlib\src\stm32f10x_tim.c         0x00000000   Number         0  stm32f10x_tim.o ABSOLUTE
    System\FWlib\src\stm32f10x_usart.c       0x00000000   Number         0  stm32f10x_usart.o ABSOLUTE
    System\FWlib\src\stm32f10x_wwdg.c        0x00000000   Number         0  stm32f10x_wwdg.o ABSOLUTE
    System\Startup\startup_stm32f10x_hd.s    0x00000000   Number         0  startup_stm32f10x_hd.o ABSOLUTE
    System\\CM3\\core_cm3.c                  0x00000000   Number         0  core_cm3.o ABSOLUTE
    USB\USB_Communication\HostComm.c         0x00000000   Number         0  hostcomm.o ABSOLUTE
    USB\USB_Communication\USB.c              0x00000000   Number         0  usb.o ABSOLUTE
    USB\USB_Communication\stmflash.c         0x00000000   Number         0  stmflash.o ABSOLUTE
    USB\comm\Comm_FIFO.c                     0x00000000   Number         0  comm_fifo.o ABSOLUTE
    USB\lib\usb_core.c                       0x00000000   Number         0  usb_core.o ABSOLUTE
    USB\lib\usb_init.c                       0x00000000   Number         0  usb_init.o ABSOLUTE
    USB\lib\usb_int.c                        0x00000000   Number         0  usb_int.o ABSOLUTE
    USB\lib\usb_mem.c                        0x00000000   Number         0  usb_mem.o ABSOLUTE
    USB\lib\usb_regs.c                       0x00000000   Number         0  usb_regs.o ABSOLUTE
    USB\lib\usb_sil.c                        0x00000000   Number         0  usb_sil.o ABSOLUTE
    USB\src\hw_config.c                      0x00000000   Number         0  hw_config.o ABSOLUTE
    USB\src\usb_desc.c                       0x00000000   Number         0  usb_desc.o ABSOLUTE
    USB\src\usb_endp.c                       0x00000000   Number         0  usb_endp.o ABSOLUTE
    USB\src\usb_istr.c                       0x00000000   Number         0  usb_istr.o ABSOLUTE
    USB\src\usb_it.c                         0x00000000   Number         0  usb_it.o ABSOLUTE
    USB\src\usb_prop.c                       0x00000000   Number         0  usb_prop.o ABSOLUTE
    USB\src\usb_pwr.c                        0x00000000   Number         0  usb_pwr.o ABSOLUTE
    cdcmple.s                                0x00000000   Number         0  cdcmple.o ABSOLUTE
    cdrcmple.s                               0x00000000   Number         0  cdrcmple.o ABSOLUTE
    dc.s                                     0x00000000   Number         0  dc.o ABSOLUTE
    handlers.s                               0x00000000   Number         0  handlers.o ABSOLUTE
    init.s                                   0x00000000   Number         0  init.o ABSOLUTE
    RESET                                    0x08000000   Section      304  startup_stm32f10x_hd.o(RESET)
    .ARM.Collect$$$$00000000                 0x08000130   Section        0  entry.o(.ARM.Collect$$$$00000000)
    .ARM.Collect$$$$00000001                 0x08000130   Section        4  entry2.o(.ARM.Collect$$$$00000001)
    .ARM.Collect$$$$00000004                 0x08000134   Section        4  entry5.o(.ARM.Collect$$$$00000004)
    .ARM.Collect$$$$00000008                 0x08000138   Section        0  entry7b.o(.ARM.Collect$$$$00000008)
    .ARM.Collect$$$$00000009                 0x08000138   Section        8  entry8.o(.ARM.Collect$$$$00000009)
    .ARM.Collect$$$$00002712                 0x08000140   Section        4  entry2.o(.ARM.Collect$$$$00002712)
    __lit__00000000                          0x08000140   Data           4  entry2.o(.ARM.Collect$$$$00002712)
    .text                                    0x08000144   Section       36  startup_stm32f10x_hd.o(.text)
    .text                                    0x08000168   Section        0  memcpya.o(.text)
    .text                                    0x0800018c   Section        0  memseta.o(.text)
    .text                                    0x080001b2   Section        0  uldiv.o(.text)
    .text                                    0x08000214   Section        0  llshl.o(.text)
    .text                                    0x08000232   Section        0  llushr.o(.text)
    .text                                    0x08000254   Section       36  init.o(.text)
    .text                                    0x08000278   Section        0  __dczerorl2.o(.text)
    i.ADC_Cmd                                0x080002d4   Section        0  stm32f10x_adc.o(i.ADC_Cmd)
    i.ADC_GetCalibrationStatus               0x080002ea   Section        0  stm32f10x_adc.o(i.ADC_GetCalibrationStatus)
    i.ADC_GetConversionValue                 0x080002fe   Section        0  stm32f10x_adc.o(i.ADC_GetConversionValue)
    i.ADC_GetFlagStatus                      0x08000306   Section        0  stm32f10x_adc.o(i.ADC_GetFlagStatus)
    i.ADC_GetResetCalibrationStatus          0x08000318   Section        0  stm32f10x_adc.o(i.ADC_GetResetCalibrationStatus)
    i.ADC_Init                               0x0800032c   Section        0  stm32f10x_adc.o(i.ADC_Init)
    i.ADC_RegularChannelConfig               0x0800037c   Section        0  stm32f10x_adc.o(i.ADC_RegularChannelConfig)
    i.ADC_ResetCalibration                   0x08000434   Section        0  stm32f10x_adc.o(i.ADC_ResetCalibration)
    i.ADC_SoftwareStartConvCmd               0x0800043e   Section        0  stm32f10x_adc.o(i.ADC_SoftwareStartConvCmd)
    i.ADC_StartCalibration                   0x08000454   Section        0  stm32f10x_adc.o(i.ADC_StartCalibration)
    i.Acquisition_Signal                     0x08000460   Section        0  interface_testing.o(i.Acquisition_Signal)
    i.Battery_Empty_ICO                      0x080004e4   Section        0  interface_main.o(i.Battery_Empty_ICO)
    i.BlockWrite                             0x08000638   Section        0  displaydriver.o(i.BlockWrite)
    i.BlockWrite_Test                        0x08000692   Section        0  displaydriver.o(i.BlockWrite_Test)
    i.BusFault_Handler                       0x080006c4   Section        0  stm32f10x_it.o(i.BusFault_Handler)
    i.ByteSwap                               0x080006c8   Section        0  usb_regs.o(i.ByteSwap)
    i.CTR_LP                                 0x080006d4   Section        0  usb_int.o(i.CTR_LP)
    i.Calc4BitsCRC                           0x08000934   Section        0  common.o(i.Calc4BitsCRC)
    Calc4BitsCRC                             0x08000935   Thumb Code    26  common.o(i.Calc4BitsCRC)
    i.ClearDTOG_RX                           0x08000954   Section        0  usb_regs.o(i.ClearDTOG_RX)
    i.ClearDTOG_TX                           0x08000980   Section        0  usb_regs.o(i.ClearDTOG_TX)
    i.Clear_Status_Out                       0x080009ac   Section        0  usb_regs.o(i.Clear_Status_Out)
    i.Comm_FIFO_Init                         0x080009cc   Section        0  comm_fifo.o(i.Comm_FIFO_Init)
    i.Comm_FIFO_RxDataPut                    0x08000a10   Section        0  comm_fifo.o(i.Comm_FIFO_RxDataPut)
    i.Common_CalculateCRC                    0x08000a6e   Section        0  common.o(i.Common_CalculateCRC)
    i.Common_EXTI_Init                       0x08000aa2   Section        0  common.o(i.Common_EXTI_Init)
    i.DataStageIn                            0x08000b10   Section        0  usb_core.o(i.DataStageIn)
    DataStageIn                              0x08000b11   Thumb Code   166  usb_core.o(i.DataStageIn)
    i.DataStageOut                           0x08000bd0   Section        0  usb_core.o(i.DataStageOut)
    DataStageOut                             0x08000bd1   Thumb Code   166  usb_core.o(i.DataStageOut)
    i.Data_Setup0                            0x08000c8c   Section        0  usb_core.o(i.Data_Setup0)
    Data_Setup0                              0x08000c8d   Thumb Code   614  usb_core.o(i.Data_Setup0)
    i.DebugMon_Handler                       0x08000f18   Section        0  stm32f10x_it.o(i.DebugMon_Handler)
    i.Delay                                  0x08000f1a   Section        0  displaydriver.o(i.Delay)
    Delay                                    0x08000f1b   Thumb Code    22  displaydriver.o(i.Delay)
    i.Delay_SW                               0x08000f30   Section        0  scanmotordriver.o(i.Delay_SW)
    i.Delay_ms                               0x08000f3c   Section        0  main.o(i.Delay_ms)
    i.Delay_ms_SW                            0x08000f50   Section        0  stm32f10x_it.o(i.Delay_ms_SW)
    i.Delay_us                               0x08000f66   Section        0  rotationmotor.o(i.Delay_us)
    i.Delay_us_SW                            0x08000f7a   Section        0  systemmanage_rtc.o(i.Delay_us_SW)
    i.DisplayDriver_DrawLine                 0x08000f8e   Section        0  font.o(i.DisplayDriver_DrawLine)
    i.DisplayDriver_DrawPic                  0x0800103c   Section        0  displaydriver.o(i.DisplayDriver_DrawPic)
    i.DisplayDriver_Init                     0x08001098   Section        0  displaydriver.o(i.DisplayDriver_Init)
    i.DisplayDriver_Text16                   0x08001264   Section        0  font.o(i.DisplayDriver_Text16)
    i.DisplayDriver_Text16_B                 0x080013ac   Section        0  font.o(i.DisplayDriver_Text16_B)
    i.EP1_IN_Callback                        0x08001538   Section        0  usb_endp.o(i.EP1_IN_Callback)
    i.EP3_OUT_Callback                       0x0800153c   Section        0  usb_endp.o(i.EP3_OUT_Callback)
    i.EXTI0_IRQHandler                       0x0800157c   Section        0  stm32f10x_it.o(i.EXTI0_IRQHandler)
    i.EXTI15_10_IRQHandler                   0x0800157e   Section        0  stm32f10x_it.o(i.EXTI15_10_IRQHandler)
    i.EXTI1_IRQHandler                       0x08001580   Section        0  stm32f10x_it.o(i.EXTI1_IRQHandler)
    i.EXTI2_IRQHandler                       0x08001598   Section        0  stm32f10x_it.o(i.EXTI2_IRQHandler)
    i.EXTI3_IRQHandler                       0x080015a6   Section        0  stm32f10x_it.o(i.EXTI3_IRQHandler)
    i.EXTI4_IRQHandler                       0x080015a8   Section        0  stm32f10x_it.o(i.EXTI4_IRQHandler)
    i.EXTI9_5_IRQHandler                     0x080015d8   Section        0  stm32f10x_it.o(i.EXTI9_5_IRQHandler)
    i.EXTIX_Init                             0x08001640   Section        0  humaninput.o(i.EXTIX_Init)
    i.EXTI_ClearITPendingBit                 0x080016f0   Section        0  stm32f10x_exti.o(i.EXTI_ClearITPendingBit)
    i.EXTI_GetITStatus                       0x080016fc   Section        0  stm32f10x_exti.o(i.EXTI_GetITStatus)
    i.EXTI_Init                              0x08001724   Section        0  stm32f10x_exti.o(i.EXTI_Init)
    i.EXTI_Key_Confirm_Disable               0x080017b8   Section        0  humaninput.o(i.EXTI_Key_Confirm_Disable)
    i.EXTI_Key_Confirm_Enable                0x080017e0   Section        0  humaninput.o(i.EXTI_Key_Confirm_Enable)
    i.FSMC_NORSRAMCmd                        0x08001824   Section        0  stm32f10x_fsmc.o(i.FSMC_NORSRAMCmd)
    i.FSMC_NORSRAMInit                       0x08001858   Section        0  stm32f10x_fsmc.o(i.FSMC_NORSRAMInit)
    i.GPIO_EXTILineConfig                    0x08001938   Section        0  stm32f10x_gpio.o(i.GPIO_EXTILineConfig)
    i.GPIO_Init                              0x08001978   Section        0  stm32f10x_gpio.o(i.GPIO_Init)
    i.GPIO_PinRemapConfig                    0x08001a8c   Section        0  stm32f10x_gpio.o(i.GPIO_PinRemapConfig)
    i.GPIO_ReadInputDataBit                  0x08001b1c   Section        0  stm32f10x_gpio.o(i.GPIO_ReadInputDataBit)
    i.GPIO_ResetBits                         0x08001b2e   Section        0  stm32f10x_gpio.o(i.GPIO_ResetBits)
    i.GPIO_SetBits                           0x08001b32   Section        0  stm32f10x_gpio.o(i.GPIO_SetBits)
    i.GPIO_WriteBit                          0x08001b36   Section        0  stm32f10x_gpio.o(i.GPIO_WriteBit)
    i.GetEPRxAddr                            0x08001b40   Section        0  usb_regs.o(i.GetEPRxAddr)
    i.GetEPRxCount                           0x08001b60   Section        0  usb_regs.o(i.GetEPRxCount)
    i.GetEPTxAddr                            0x08001b84   Section        0  usb_regs.o(i.GetEPTxAddr)
    i.Get_SerialNum                          0x08001ba4   Section        0  hw_config.o(i.Get_SerialNum)
    i.Get_Start_Postion                      0x08001bd8   Section        0  interface_testing.o(i.Get_Start_Postion)
    i.Get_sampleBuffer_Max_Value             0x08001cb0   Section        0  interface_testing.o(i.Get_sampleBuffer_Max_Value)
    i.HardFault_Handler                      0x08001cf0   Section        0  stm32f10x_it.o(i.HardFault_Handler)
    i.HostComm_Config                        0x08001cf4   Section        0  hostcomm.o(i.HostComm_Config)
    HostComm_Config                          0x08001cf5   Thumb Code    70  hostcomm.o(i.HostComm_Config)
    i.HostComm_Init                          0x08001d40   Section        0  hostcomm.o(i.HostComm_Init)
    i.HostComm_NVIC_Configuration            0x08001d54   Section        0  hostcomm.o(i.HostComm_NVIC_Configuration)
    HostComm_NVIC_Configuration              0x08001d55   Thumb Code    32  hostcomm.o(i.HostComm_NVIC_Configuration)
    i.HumanInput_Init                        0x08001d74   Section        0  humaninput.o(i.HumanInput_Init)
    i.I2C_Ack                                0x08001db8   Section        0  systemmanage_rtc.o(i.I2C_Ack)
    i.I2C_NoAck                              0x08001df8   Section        0  systemmanage_rtc.o(i.I2C_NoAck)
    i.IIC_ReadByte                           0x08001e38   Section        0  systemmanage_rtc.o(i.IIC_ReadByte)
    i.IIC_Start                              0x08001e8c   Section        0  systemmanage_rtc.o(i.IIC_Start)
    i.IIC_Stop                               0x08001ec8   Section        0  systemmanage_rtc.o(i.IIC_Stop)
    i.IIC_WaitAck                            0x08001f08   Section        0  systemmanage_rtc.o(i.IIC_WaitAck)
    i.IIC_WriteByte                          0x08001f5c   Section        0  systemmanage_rtc.o(i.IIC_WriteByte)
    i.In0_Process                            0x08001fc0   Section        0  usb_core.o(i.In0_Process)
    i.IntToUnicode                           0x08002030   Section        0  hw_config.o(i.IntToUnicode)
    IntToUnicode                             0x08002031   Thumb Code    62  hw_config.o(i.IntToUnicode)
    i.Interface_Insert_Cup                   0x08002070   Section        0  interface_insert_cup.o(i.Interface_Insert_Cup)
    i.Interface_Key_Event                    0x080020bc   Section        0  interface_main.o(i.Interface_Key_Event)
    i.Interface_Main                         0x080021d0   Section        0  interface_main.o(i.Interface_Main)
    i.Interface_Main_font                    0x0800220c   Section        0  interface_main.o(i.Interface_Main_font)
    i.Interface_Process                      0x08002250   Section        0  interface_main.o(i.Interface_Process)
    i.Interface_Quick                        0x08002284   Section        0  interface_quick.o(i.Interface_Quick)
    i.Interface_Quick_font                   0x08002300   Section        0  interface_quick.o(i.Interface_Quick_font)
    i.Interface_Record                       0x08002338   Section        0  interface_record.o(i.Interface_Record)
    i.Interface_Result                       0x0800238c   Section        0  interface_result.o(i.Interface_Result)
    i.Interface_Result_2                     0x080023ec   Section        0  interface_result_2.o(i.Interface_Result_2)
    i.Interface_Setting                      0x08002440   Section        0  interface_setting.o(i.Interface_Setting)
    i.Interface_Standard                     0x08002494   Section        0  interface_standard.o(i.Interface_Standard)
    i.Interface_Start                        0x080024dc   Section        0  interface_start.o(i.Interface_Start)
    i.Interface_Testing                      0x0800252c   Section        0  interface_testing.o(i.Interface_Testing)
    i.Key_Confirm                            0x08002590   Section        0  humaninput.o(i.Key_Confirm)
    i.Key_Left                               0x080025ec   Section        0  humaninput.o(i.Key_Left)
    i.Key_Right                              0x08002668   Section        0  humaninput.o(i.Key_Right)
    i.LCD_FSMC_Config                        0x080026cc   Section        0  displaydriver.o(i.LCD_FSMC_Config)
    LCD_FSMC_Config                          0x080026cd   Thumb Code    92  displaydriver.o(i.LCD_FSMC_Config)
    i.LCD_GPIO_Config                        0x08002728   Section        0  displaydriver.o(i.LCD_GPIO_Config)
    i.LCD_Rst                                0x080027fc   Section        0  displaydriver.o(i.LCD_Rst)
    LCD_Rst                                  0x080027fd   Thumb Code    38  displaydriver.o(i.LCD_Rst)
    i.Lcd_ColorBox                           0x08002828   Section        0  displaydriver.o(i.Lcd_ColorBox)
    i.Lcd_ColorSpot                          0x08002870   Section        0  displaydriver.o(i.Lcd_ColorSpot)
    i.Leave_LowPowerMode                     0x08002890   Section        0  hw_config.o(i.Leave_LowPowerMode)
    i.MemManage_Handler                      0x080028b0   Section        0  stm32f10x_it.o(i.MemManage_Handler)
    i.NMI_Handler                            0x080028b4   Section        0  stm32f10x_it.o(i.NMI_Handler)
    i.NOP_Process                            0x080028b6   Section        0  usb_core.o(i.NOP_Process)
    i.NVIC_Init                              0x080028b8   Section        0  misc.o(i.NVIC_Init)
    i.NVIC_PriorityGroupConfig               0x0800292c   Section        0  misc.o(i.NVIC_PriorityGroupConfig)
    i.NoData_Setup0                          0x08002940   Section        0  usb_core.o(i.NoData_Setup0)
    NoData_Setup0                            0x08002941   Thumb Code   288  usb_core.o(i.NoData_Setup0)
    i.Out0_Process                           0x08002a74   Section        0  usb_core.o(i.Out0_Process)
    i.PCF8563_Init                           0x08002ac4   Section        0  systemmanage_rtc.o(i.PCF8563_Init)
    i.PCF8563_Read                           0x08002b00   Section        0  systemmanage_rtc.o(i.PCF8563_Read)
    i.PMAToUserBufferCopy                    0x08002c38   Section        0  usb_mem.o(i.PMAToUserBufferCopy)
    i.PVD_IRQHandler                         0x08002c5c   Section        0  stm32f10x_it.o(i.PVD_IRQHandler)
    i.PendSV_Handler                         0x08002c5e   Section        0  stm32f10x_it.o(i.PendSV_Handler)
    i.Post0_Process                          0x08002c60   Section        0  usb_core.o(i.Post0_Process)
    i.PowerOn                                0x08002ca8   Section        0  usb_pwr.o(i.PowerOn)
    i.QRCode_GPIO_Init                       0x08002ce8   Section        0  qrcode.o(i.QRCode_GPIO_Init)
    i.QRCode_Init                            0x08002d10   Section        0  qrcode.o(i.QRCode_Init)
    i.QRCode_Trigger_Disabled                0x08002d1c   Section        0  qrcode.o(i.QRCode_Trigger_Disabled)
    i.QRCode_Trigger_Enabled                 0x08002d2c   Section        0  qrcode.o(i.QRCode_Trigger_Enabled)
    i.QRCode_Uart_Config                     0x08002d3c   Section        0  qrcode.o(i.QRCode_Uart_Config)
    i.QRCode_Uart_GPIO_Init                  0x08002d88   Section        0  qrcode.o(i.QRCode_Uart_GPIO_Init)
    i.QRCode_Uart_Init                       0x08002dc4   Section        0  qrcode.o(i.QRCode_Uart_Init)
    i.QRCode_Uart_NVIC_Configuration         0x08002ddc   Section        0  qrcode.o(i.QRCode_Uart_NVIC_Configuration)
    i.RCC_AHBPeriphClockCmd                  0x08002e00   Section        0  stm32f10x_rcc.o(i.RCC_AHBPeriphClockCmd)
    i.RCC_APB1PeriphClockCmd                 0x08002e20   Section        0  stm32f10x_rcc.o(i.RCC_APB1PeriphClockCmd)
    i.RCC_APB2PeriphClockCmd                 0x08002e40   Section        0  stm32f10x_rcc.o(i.RCC_APB2PeriphClockCmd)
    i.RCC_Configuration                      0x08002e60   Section        0  displaydriver.o(i.RCC_Configuration)
    i.RCC_GetClocksFreq                      0x08002e80   Section        0  stm32f10x_rcc.o(i.RCC_GetClocksFreq)
    i.RCC_USBCLKConfig                       0x08002f54   Section        0  stm32f10x_rcc.o(i.RCC_USBCLKConfig)
    i.Resume                                 0x08002f60   Section        0  usb_pwr.o(i.Resume)
    i.Resume_Init                            0x08003030   Section        0  usb_pwr.o(i.Resume_Init)
    i.RotaMotorDriver_GPIO_Init              0x08003054   Section        0  rotationmotor.o(i.RotaMotorDriver_GPIO_Init)
    i.RotaMotorDriver_PositionSensor_Init    0x080030a4   Section        0  rotationmotordriver_positionsensor.o(i.RotaMotorDriver_PositionSensor_Init)
    i.RotaMotorDriver_PositionSensor_Int_Disable 0x08003108   Section        0  rotationmotordriver_positionsensor.o(i.RotaMotorDriver_PositionSensor_Int_Disable)
    i.RotationMotor_Init                     0x08003128   Section        0  rotationmotor.o(i.RotationMotor_Init)
    i.RotationMotor_Input_StepDrive          0x08003134   Section        0  rotationmotor.o(i.RotationMotor_Input_StepDrive)
    i.RotationMotor_PIN                      0x08003160   Section        0  rotationmotor.o(i.RotationMotor_PIN)
    RotationMotor_PIN                        0x08003161   Thumb Code   184  rotationmotor.o(i.RotationMotor_PIN)
    i.RotationMotor_SelfCheck_StepDrive      0x08003224   Section        0  rotationmotor.o(i.RotationMotor_SelfCheck_StepDrive)
    i.RotationMotor_StepDrive_Min            0x08003264   Section        0  rotationmotor.o(i.RotationMotor_StepDrive_Min)
    i.SOF_Callback                           0x08003284   Section        0  usb_endp.o(i.SOF_Callback)
    i.SPI_Cmd                                0x08003344   Section        0  stm32f10x_spi.o(i.SPI_Cmd)
    i.SPI_I2S_GetFlagStatus                  0x0800335c   Section        0  stm32f10x_spi.o(i.SPI_I2S_GetFlagStatus)
    i.SPI_I2S_SendData                       0x0800336e   Section        0  stm32f10x_spi.o(i.SPI_I2S_SendData)
    i.SPI_Init                               0x08003372   Section        0  stm32f10x_spi.o(i.SPI_Init)
    i.SVC_Handler                            0x080033ae   Section        0  stm32f10x_it.o(i.SVC_Handler)
    i.ScanMotorDriver_A1                     0x080033b0   Section        0  scanmotordriver.o(i.ScanMotorDriver_A1)
    i.ScanMotorDriver_A2                     0x080033dc   Section        0  scanmotordriver.o(i.ScanMotorDriver_A2)
    i.ScanMotorDriver_B1                     0x08003408   Section        0  scanmotordriver.o(i.ScanMotorDriver_B1)
    i.ScanMotorDriver_B2                     0x08003434   Section        0  scanmotordriver.o(i.ScanMotorDriver_B2)
    i.ScanMotorDriver_Control                0x08003460   Section        0  scanmotordriver.o(i.ScanMotorDriver_Control)
    i.ScanMotorDriver_GPIO_Init              0x08003480   Section        0  scanmotordriver.o(i.ScanMotorDriver_GPIO_Init)
    i.ScanMotorDriver_Goto_BasePosition      0x08003518   Section        0  scanmotordriver.o(i.ScanMotorDriver_Goto_BasePosition)
    i.ScanMotorDriver_Goto_CentrePosition    0x08003544   Section        0  scanmotordriver.o(i.ScanMotorDriver_Goto_CentrePosition)
    i.ScanMotorDriver_Goto_DetectionPosition 0x08003558   Section        0  scanmotordriver.o(i.ScanMotorDriver_Goto_DetectionPosition)
    i.ScanMotorDriver_Init                   0x0800356c   Section        0  scanmotordriver.o(i.ScanMotorDriver_Init)
    i.ScanMotorDriver_Move                   0x08003578   Section        0  scanmotordriver.o(i.ScanMotorDriver_Move)
    i.ScanMotorDriver_MoveOneStep            0x080035c0   Section        0  scanmotordriver.o(i.ScanMotorDriver_MoveOneStep)
    i.ScanMotorDriver_PositionSensor_Init    0x08003650   Section        0  scanmotordriver_positionsensor.o(i.ScanMotorDriver_PositionSensor_Init)
    i.ScanMotorDriver_PositionSensor_Int_Disable 0x080036b4   Section        0  scanmotordriver_positionsensor.o(i.ScanMotorDriver_PositionSensor_Int_Disable)
    i.ScanMotorDriver_PositionSensor_Int_Enable 0x080036d4   Section        0  scanmotordriver_positionsensor.o(i.ScanMotorDriver_PositionSensor_Int_Enable)
    i.ScanMotorDriver_SelfCheck_StepDrive    0x080036f4   Section        0  scanmotordriver.o(i.ScanMotorDriver_SelfCheck_StepDrive)
    i.SetBTABLE                              0x08003734   Section        0  usb_regs.o(i.SetBTABLE)
    i.SetDeviceAddress                       0x08003744   Section        0  usb_core.o(i.SetDeviceAddress)
    i.SetEPRxAddr                            0x0800378c   Section        0  usb_regs.o(i.SetEPRxAddr)
    i.SetEPRxCount                           0x080037b0   Section        0  usb_regs.o(i.SetEPRxCount)
    i.SetEPRxStatus                          0x080037fc   Section        0  usb_regs.o(i.SetEPRxStatus)
    i.SetEPRxValid                           0x08003838   Section        0  usb_regs.o(i.SetEPRxValid)
    i.SetEPTxAddr                            0x08003864   Section        0  usb_regs.o(i.SetEPTxAddr)
    i.SetEPTxCount                           0x08003884   Section        0  usb_regs.o(i.SetEPTxCount)
    i.SetEPTxStatus                          0x080038a0   Section        0  usb_regs.o(i.SetEPTxStatus)
    i.SetEPTxValid                           0x080038dc   Section        0  usb_regs.o(i.SetEPTxValid)
    i.SetEPType                              0x08003908   Section        0  usb_regs.o(i.SetEPType)
    i.SetSysClock                            0x08003924   Section        0  system_stm32f10x.o(i.SetSysClock)
    SetSysClock                              0x08003925   Thumb Code     8  system_stm32f10x.o(i.SetSysClock)
    i.SetSysClockTo72                        0x0800392c   Section        0  system_stm32f10x.o(i.SetSysClockTo72)
    SetSysClockTo72                          0x0800392d   Thumb Code   192  system_stm32f10x.o(i.SetSysClockTo72)
    i.Set_System                             0x080039f4   Section        0  hw_config.o(i.Set_System)
    i.Set_USBClock                           0x08003a44   Section        0  hw_config.o(i.Set_USBClock)
    i.Setup0_Process                         0x08003a58   Section        0  usb_core.o(i.Setup0_Process)
    i.SignalProcess_Collecting_Data          0x08003b10   Section        0  signalprocess_sample.o(i.SignalProcess_Collecting_Data)
    i.SignalSample_Moving_Average_Data       0x08003b20   Section        0  interface_testing.o(i.SignalSample_Moving_Average_Data)
    i.SignalSample_OutputSamples             0x08003b5a   Section        0  signalprocess_sample.o(i.SignalSample_OutputSamples)
    i.SignalSample_SampleStrip               0x08003b5c   Section        0  signalprocess_sample.o(i.SignalSample_SampleStrip)
    i.SignalSample_Sample_AD84XX_Init        0x08003c08   Section        0  signalprocess_sample.o(i.SignalSample_Sample_AD84XX_Init)
    i.SignalSample_Sample_AD84XX_SendByte    0x08003ca4   Section        0  signalprocess_sample.o(i.SignalSample_Sample_AD84XX_SendByte)
    i.SignalSample_Sample_ADC_Init           0x08003cc4   Section        0  signalprocess_sample.o(i.SignalSample_Sample_ADC_Init)
    i.SignalSample_Sample_EnterCriticalArea  0x08003d58   Section        0  signalprocess_sample.o(i.SignalSample_Sample_EnterCriticalArea)
    i.SignalSample_Sample_ExitCriticalArea   0x08003d74   Section        0  signalprocess_sample.o(i.SignalSample_Sample_ExitCriticalArea)
    i.SignalSample_Sample_Init               0x08003d7e   Section        0  signalprocess_sample.o(i.SignalSample_Sample_Init)
    i.SignalSample_Sample_LED_Init           0x08003d9c   Section        0  signalprocess_sample.o(i.SignalSample_Sample_LED_Init)
    i.SignalSample_Sample_Sampling           0x08003dc4   Section        0  signalprocess_sample.o(i.SignalSample_Sample_Sampling)
    i.SignalSample_Sample_SetResistor        0x08003e20   Section        0  signalprocess_sample.o(i.SignalSample_Sample_SetResistor)
    i.SignalSample_Sample_Set_LED            0x08003e34   Section        0  signalprocess_sample.o(i.SignalSample_Sample_Set_LED)
    i.SignalSample_Sample_Start              0x08003e54   Section        0  signalprocess_sample.o(i.SignalSample_Sample_Start)
    i.SignalSample_Sample_Stop               0x08003e6c   Section        0  signalprocess_sample.o(i.SignalSample_Sample_Stop)
    i.SignalSample_Sample_Strip_Sensor_Init  0x08003e80   Section        0  signalprocess_sample.o(i.SignalSample_Sample_Strip_Sensor_Init)
    i.SignalSample_Sample_Timer_Disabled     0x08003eb0   Section        0  signalprocess_sample.o(i.SignalSample_Sample_Timer_Disabled)
    i.SignalSample_Sample_Timer_Init         0x08003ec8   Section        0  signalprocess_sample.o(i.SignalSample_Sample_Timer_Init)
    i.SignalSample_Sample_Timer_Int          0x08003f24   Section        0  signalprocess_sample.o(i.SignalSample_Sample_Timer_Int)
    i.SignalSample_SetResistor               0x08003f38   Section        0  signalprocess_sample.o(i.SignalSample_SetResistor)
    i.Standard_ClearFeature                  0x08003f6c   Section        0  usb_core.o(i.Standard_ClearFeature)
    i.Standard_GetConfiguration              0x080040bc   Section        0  usb_core.o(i.Standard_GetConfiguration)
    i.Standard_GetDescriptorData             0x080040e8   Section        0  usb_core.o(i.Standard_GetDescriptorData)
    i.Standard_GetInterface                  0x0800410c   Section        0  usb_core.o(i.Standard_GetInterface)
    i.Standard_GetStatus                     0x08004138   Section        0  usb_core.o(i.Standard_GetStatus)
    i.Standard_SetConfiguration              0x08004230   Section        0  usb_core.o(i.Standard_SetConfiguration)
    i.Standard_SetDeviceFeature              0x08004278   Section        0  usb_core.o(i.Standard_SetDeviceFeature)
    i.Standard_SetEndPointFeature            0x080042a0   Section        0  usb_core.o(i.Standard_SetEndPointFeature)
    i.Standard_SetInterface                  0x0800435c   Section        0  usb_core.o(i.Standard_SetInterface)
    i.Status_Init                            0x080043c8   Section        0  main.o(i.Status_Init)
    i.Suspend                                0x08004424   Section        0  usb_pwr.o(i.Suspend)
    i.SysTick_Handler                        0x08004514   Section        0  stm32f10x_it.o(i.SysTick_Handler)
    i.SysTick_Init                           0x080045d4   Section        0  main.o(i.SysTick_Init)
    i.SystemInit                             0x08004630   Section        0  system_stm32f10x.o(i.SystemInit)
    i.SystemManage_5V_Disabled               0x08004690   Section        0  scanmotordriver.o(i.SystemManage_5V_Disabled)
    i.SystemManage_5V_Enabled                0x080046a0   Section        0  scanmotordriver.o(i.SystemManage_5V_Enabled)
    i.SystemManage_CheckPowerOff             0x080046b0   Section        0  humaninput.o(i.SystemManage_CheckPowerOff)
    i.TIM2_IRQHandler                        0x080046cc   Section        0  usb_endp.o(i.TIM2_IRQHandler)
    i.TIM3_IRQHandler                        0x0800477c   Section        0  stm32f10x_it.o(i.TIM3_IRQHandler)
    i.TIM4_IRQHandler                        0x080047a8   Section        0  stm32f10x_it.o(i.TIM4_IRQHandler)
    i.TIM7_IRQHandler                        0x080047aa   Section        0  stm32f10x_it.o(i.TIM7_IRQHandler)
    i.TIM_ClearITPendingBit                  0x080047ac   Section        0  stm32f10x_tim.o(i.TIM_ClearITPendingBit)
    i.TIM_Cmd                                0x080047b2   Section        0  stm32f10x_tim.o(i.TIM_Cmd)
    i.TIM_GetITStatus                        0x080047ca   Section        0  stm32f10x_tim.o(i.TIM_GetITStatus)
    i.TIM_ITConfig                           0x080047ec   Section        0  stm32f10x_tim.o(i.TIM_ITConfig)
    i.TIM_TimeBaseInit                       0x08004804   Section        0  stm32f10x_tim.o(i.TIM_TimeBaseInit)
    i.TimeOut_Reload                         0x080048a8   Section        0  usb_endp.o(i.TimeOut_Reload)
    i.TimingDelay_Decrement                  0x080048b0   Section        0  main.o(i.TimingDelay_Decrement)
    i.UI_Draw_Block                          0x080048c8   Section        0  interface_main.o(i.UI_Draw_Block)
    i.UI_Draw_Block_Insert_Cup               0x08004930   Section        0  interface_insert_cup.o(i.UI_Draw_Block_Insert_Cup)
    i.UI_Draw_Block_Quick                    0x08004978   Section        0  interface_quick.o(i.UI_Draw_Block_Quick)
    i.UI_Draw_Block_Quick_Font               0x080049d8   Section        0  interface_quick.o(i.UI_Draw_Block_Quick_Font)
    i.UI_Draw_Block_Record                   0x08004a20   Section        0  interface_record.o(i.UI_Draw_Block_Record)
    i.UI_Draw_Block_Setting                  0x08004a74   Section        0  interface_setting.o(i.UI_Draw_Block_Setting)
    i.UI_Draw_Block_Standard                 0x08004ac8   Section        0  interface_standard.o(i.UI_Draw_Block_Standard)
    i.UI_Draw_Block_font                     0x08004b10   Section        0  interface_main.o(i.UI_Draw_Block_font)
    i.UI_Draw_Status_Bar                     0x08004c00   Section        0  interface_main.o(i.UI_Draw_Status_Bar)
    i.UI_Draw_Window                         0x08004c50   Section        0  interface_main.o(i.UI_Draw_Window)
    i.UI_Draw_Window_Insert_Cup              0x08004c74   Section        0  interface_insert_cup.o(i.UI_Draw_Window_Insert_Cup)
    i.UI_Draw_Window_Quick                   0x08004c98   Section        0  interface_quick.o(i.UI_Draw_Window_Quick)
    i.UI_Draw_Window_Quick_font              0x08004cbc   Section        0  interface_quick.o(i.UI_Draw_Window_Quick_font)
    i.UI_Draw_Window_Record                  0x08004ce0   Section        0  interface_record.o(i.UI_Draw_Window_Record)
    i.UI_Draw_Window_Result                  0x08004d0c   Section        0  interface_result.o(i.UI_Draw_Window_Result)
    i.UI_Draw_Window_Result_2                0x08004d30   Section        0  interface_result_2.o(i.UI_Draw_Window_Result_2)
    i.UI_Draw_Window_Setting                 0x08004d54   Section        0  interface_setting.o(i.UI_Draw_Window_Setting)
    i.UI_Draw_Window_Standard                0x08004d80   Section        0  interface_standard.o(i.UI_Draw_Window_Standard)
    i.UI_Draw_Window_Start                   0x08004dcc   Section        0  interface_start.o(i.UI_Draw_Window_Start)
    i.UI_Draw_Window_Testing                 0x08004e20   Section        0  interface_testing.o(i.UI_Draw_Window_Testing)
    i.UI_Draw_Window_font                    0x08004e44   Section        0  interface_main.o(i.UI_Draw_Window_font)
    i.UI_Draw_block_Result                   0x08004e70   Section        0  interface_result.o(i.UI_Draw_block_Result)
    i.UI_Draw_block_Result_2                 0x08004ed0   Section        0  interface_result_2.o(i.UI_Draw_block_Result_2)
    i.UI_Draw_block_Start                    0x08004f30   Section        0  interface_start.o(i.UI_Draw_block_Start)
    i.UI_Draw_block_Testing                  0x08004f78   Section        0  interface_testing.o(i.UI_Draw_block_Testing)
    i.USART1_IRQHandler                      0x08004fc0   Section        0  qrcode.o(i.USART1_IRQHandler)
    i.USART2_IRQHandler                      0x08005018   Section        0  hostcomm.o(i.USART2_IRQHandler)
    i.USART_ClearFlag                        0x080050f4   Section        0  stm32f10x_usart.o(i.USART_ClearFlag)
    i.USART_ClearITPendingBit                0x08005106   Section        0  stm32f10x_usart.o(i.USART_ClearITPendingBit)
    i.USART_Cmd                              0x08005124   Section        0  stm32f10x_usart.o(i.USART_Cmd)
    i.USART_GetITStatus                      0x0800513c   Section        0  stm32f10x_usart.o(i.USART_GetITStatus)
    i.USART_ITConfig                         0x08005190   Section        0  stm32f10x_usart.o(i.USART_ITConfig)
    i.USART_Init                             0x080051dc   Section        0  stm32f10x_usart.o(i.USART_Init)
    i.USART_ReceiveData                      0x080052b4   Section        0  stm32f10x_usart.o(i.USART_ReceiveData)
    i.USBWakeUp_IRQHandler                   0x080052be   Section        0  usb_it.o(i.USBWakeUp_IRQHandler)
    i.USB_BasicInit                          0x080052cc   Section        0  usb.o(i.USB_BasicInit)
    i.USB_Cable_Config                       0x08005364   Section        0  hw_config.o(i.USB_Cable_Config)
    i.USB_Config                             0x08005388   Section        0  hw_config.o(i.USB_Config)
    i.USB_Init                               0x0800539c   Section        0  usb_init.o(i.USB_Init)
    i.USB_Interrupts_Config                  0x080053d8   Section        0  hw_config.o(i.USB_Interrupts_Config)
    i.USB_Istr                               0x080053fc   Section        0  usb_istr.o(i.USB_Istr)
    i.USB_LP_CAN1_RX0_IRQHandler             0x080055bc   Section        0  usb_it.o(i.USB_LP_CAN1_RX0_IRQHandler)
    i.USB_SIL_Init                           0x080055c4   Section        0  usb_sil.o(i.USB_SIL_Init)
    i.USB_SIL_Read                           0x080055e8   Section        0  usb_sil.o(i.USB_SIL_Read)
    i.USB_VirtualCOM_Init                    0x08005618   Section        0  usb.o(i.USB_VirtualCOM_Init)
    i.UsageFault_Handler                     0x08005630   Section        0  stm32f10x_it.o(i.UsageFault_Handler)
    i.UserToPMABufferCopy                    0x08005634   Section        0  usb_mem.o(i.UserToPMABufferCopy)
    i.Virtual_Com_Port_Data_Setup            0x0800566c   Section        0  usb_prop.o(i.Virtual_Com_Port_Data_Setup)
    i.Virtual_Com_Port_GetConfigDescriptor   0x080056d0   Section        0  usb_prop.o(i.Virtual_Com_Port_GetConfigDescriptor)
    i.Virtual_Com_Port_GetDeviceDescriptor   0x080056e4   Section        0  usb_prop.o(i.Virtual_Com_Port_GetDeviceDescriptor)
    i.Virtual_Com_Port_GetLineCoding         0x080056f8   Section        0  usb_prop.o(i.Virtual_Com_Port_GetLineCoding)
    i.Virtual_Com_Port_GetStringDescriptor   0x08005714   Section        0  usb_prop.o(i.Virtual_Com_Port_GetStringDescriptor)
    i.Virtual_Com_Port_Get_Interface_Setting 0x0800573c   Section        0  usb_prop.o(i.Virtual_Com_Port_Get_Interface_Setting)
    i.Virtual_Com_Port_NoData_Setup          0x08005754   Section        0  usb_prop.o(i.Virtual_Com_Port_NoData_Setup)
    i.Virtual_Com_Port_Reset                 0x0800577c   Section        0  usb_prop.o(i.Virtual_Com_Port_Reset)
    i.Virtual_Com_Port_SetConfiguration      0x08005864   Section        0  usb_prop.o(i.Virtual_Com_Port_SetConfiguration)
    i.Virtual_Com_Port_SetDeviceAddress      0x0800587c   Section        0  usb_prop.o(i.Virtual_Com_Port_SetDeviceAddress)
    i.Virtual_Com_Port_SetLineCoding         0x08005888   Section        0  usb_prop.o(i.Virtual_Com_Port_SetLineCoding)
    i.Virtual_Com_Port_Status_In             0x080058a4   Section        0  usb_prop.o(i.Virtual_Com_Port_Status_In)
    i.Virtual_Com_Port_Status_Out            0x080058b8   Section        0  usb_prop.o(i.Virtual_Com_Port_Status_Out)
    i.Virtual_Com_Port_init                  0x080058bc   Section        0  usb_prop.o(i.Virtual_Com_Port_init)
    i.WriteComm                              0x080058e4   Section        0  displaydriver.o(i.WriteComm)
    WriteComm                                0x080058e5   Thumb Code     8  displaydriver.o(i.WriteComm)
    i.WriteData                              0x080058ec   Section        0  displaydriver.o(i.WriteData)
    WriteData                                0x080058ed   Thumb Code     6  displaydriver.o(i.WriteData)
    i.__0sprintf$8                           0x080058f8   Section        0  printf8.o(i.__0sprintf$8)
    i.__scatterload_copy                     0x08005920   Section       14  handlers.o(i.__scatterload_copy)
    i.__scatterload_null                     0x0800592e   Section        2  handlers.o(i.__scatterload_null)
    i.__scatterload_zeroinit                 0x08005930   Section       14  handlers.o(i.__scatterload_zeroinit)
    i._printf_core                           0x08005940   Section        0  printf8.o(i._printf_core)
    _printf_core                             0x08005941   Thumb Code  1010  printf8.o(i._printf_core)
    i._printf_post_padding                   0x08005d60   Section        0  printf8.o(i._printf_post_padding)
    _printf_post_padding                     0x08005d61   Thumb Code    38  printf8.o(i._printf_post_padding)
    i._printf_pre_padding                    0x08005d86   Section        0  printf8.o(i._printf_pre_padding)
    _printf_pre_padding                      0x08005d87   Thumb Code    48  printf8.o(i._printf_pre_padding)
    i._sputc                                 0x08005db6   Section        0  printf8.o(i._sputc)
    _sputc                                   0x08005db7   Thumb Code    10  printf8.o(i._sputc)
    i.main                                   0x08005dc0   Section        0  main.o(i.main)
    .constdata                               0x08005e04   Section    15314  displaydriver_fontlib.o(.constdata)
    .constdata                               0x080099d8   Section    67412  interface_main.o(.constdata)
    UI_stateMachine                          0x0801a0f8   Data          52  interface_main.o(.constdata)
    .constdata                               0x0801a12c   Section       32  common.o(.constdata)
    .constdata                               0x0801a14c   Section      151  usb_desc.o(.constdata)
    .conststring                             0x0801a1e3   Section       30  interface_main.o(.conststring)
    .conststring                             0x0801a201   Section       87  interface_standard.o(.conststring)
    .conststring                             0x0801a258   Section       47  interface_quick.o(.conststring)
    .conststring                             0x0801a287   Section       20  interface_record.o(.conststring)
    .conststring                             0x0801a29b   Section       26  interface_setting.o(.conststring)
    .conststring                             0x0801a2b5   Section       60  interface_result.o(.conststring)
    .conststring                             0x0801a2f1   Section       11  interface_testing.o(.conststring)
    .conststring                             0x0801a2fc   Section       54  interface_result_2.o(.conststring)
    .conststring                             0x0801a332   Section       23  interface_insert_cup.o(.conststring)
    .data                                    0x20000004   Section       20  stm32f10x_rcc.o(.data)
    APBAHBPrescTable                         0x20000004   Data          16  stm32f10x_rcc.o(.data)
    ADCPrescTable                            0x20000014   Data           4  stm32f10x_rcc.o(.data)
    .data                                    0x20000018   Section        8  main.o(.data)
    TimingDelay                              0x2000001c   Data           4  main.o(.data)
    .data                                    0x20000020   Section       24  stm32f10x_it.o(.data)
    .data                                    0x20000038   Section       38  rotationmotor.o(.data)
    .data                                    0x2000005e   Section        5  humaninput.o(.data)
    .data                                    0x20000064   Section      344  interface_main.o(.data)
    .data                                    0x200001bc   Section     1012  interface_standard.o(.data)
    .data                                    0x200005b0   Section      372  interface_quick.o(.data)
    .data                                    0x20000724   Section      388  interface_record.o(.data)
    .data                                    0x200008a8   Section      160  interface_setting.o(.data)
    .data                                    0x20000948   Section      424  interface_result.o(.data)
    .data                                    0x20000af0   Section      940  interface_start.o(.data)
    .data                                    0x20000e9c   Section       76  interface_testing.o(.data)
    .data                                    0x20000ee8   Section        9  scanmotordriver.o(.data)
    .data                                    0x20000ef2   Section        4  qrcode.o(.data)
    .data                                    0x20000ef6   Section       16  systemmanage_rtc.o(.data)
    .data                                    0x20000f06   Section       10  signalprocess_sample.o(.data)
    .data                                    0x20000f10   Section      360  interface_result_2.o(.data)
    .data                                    0x20001078   Section      148  interface_insert_cup.o(.data)
    .data                                    0x2000110c   Section        1  comm_fifo.o(.data)
    .data                                    0x20001110   Section       12  hw_config.o(.data)
    .data                                    0x2000111c   Section       38  usb_desc.o(.data)
    .data                                    0x20001144   Section       14  usb_endp.o(.data)
    txFlg                                    0x20001144   Data           1  usb_endp.o(.data)
    FrameCount                               0x20001148   Data           4  usb_endp.o(.data)
    TxLen                                    0x20001150   Data           2  usb_endp.o(.data)
    .data                                    0x20001154   Section       70  usb_istr.o(.data)
    .data                                    0x2000119c   Section      148  usb_prop.o(.data)
    .data                                    0x20001230   Section       14  usb_pwr.o(.data)
    .data                                    0x20001240   Section       24  hostcomm.o(.data)
    .data                                    0x20001258   Section        4  usb_core.o(.data)
    .data                                    0x2000125c   Section       20  usb_init.o(.data)
    .data                                    0x20001270   Section        4  usb_int.o(.data)
    .bss                                     0x20001274   Section      400  qrcode.o(.bss)
    .bss                                     0x20001404   Section       50  signalprocess_sample.o(.bss)
    .bss                                     0x20001436   Section     8008  comm_fifo.o(.bss)
    .bss                                     0x2000337e   Section     2048  usb_endp.o(.bss)
    .bss                                     0x20003b80   Section       32  usb_pwr.o(.bss)
    .bss                                     0x20003ba0   Section     5320  hostcomm.o(.bss)
    .bss                                     0x20005068   Section       28  usb_init.o(.bss)
    STACK                                    0x20005088   Section     4096  startup_stm32f10x_hd.o(STACK)

    Global Symbols

    Symbol Name                              Value     Ov Type        Size  Object(Section)

    BuildAttributes$$THM_ISAv4$P$D$K$B$S$PE$A:L22UL41UL21$X:L11$S22US41US21$IEEE1$IW$USESV6$~STKCKD$USESV7$~SHL$OTIME$ROPI$EBA8$MICROLIB$REQ8$PRES8$EABIv2 0x00000000   Number         0  anon$$obj.o ABSOLUTE
    __ARM_use_no_argv                        0x00000000   Number         0  main.o ABSOLUTE
    _printf_a                                0x00000000   Number         0  stubs.o ABSOLUTE
    _printf_c                                0x00000000   Number         0  stubs.o ABSOLUTE
    _printf_charcount                        0x00000000   Number         0  stubs.o ABSOLUTE
    _printf_d                                0x00000000   Number         0  stubs.o ABSOLUTE
    _printf_e                                0x00000000   Number         0  stubs.o ABSOLUTE
    _printf_f                                0x00000000   Number         0  stubs.o ABSOLUTE
    _printf_flags                            0x00000000   Number         0  stubs.o ABSOLUTE
    _printf_fp_dec                           0x00000000   Number         0  stubs.o ABSOLUTE
    _printf_fp_hex                           0x00000000   Number         0  stubs.o ABSOLUTE
    _printf_g                                0x00000000   Number         0  stubs.o ABSOLUTE
    _printf_i                                0x00000000   Number         0  stubs.o ABSOLUTE
    _printf_int_dec                          0x00000000   Number         0  stubs.o ABSOLUTE
    _printf_l                                0x00000000   Number         0  stubs.o ABSOLUTE
    _printf_lc                               0x00000000   Number         0  stubs.o ABSOLUTE
    _printf_ll                               0x00000000   Number         0  stubs.o ABSOLUTE
    _printf_lld                              0x00000000   Number         0  stubs.o ABSOLUTE
    _printf_lli                              0x00000000   Number         0  stubs.o ABSOLUTE
    _printf_llo                              0x00000000   Number         0  stubs.o ABSOLUTE
    _printf_llu                              0x00000000   Number         0  stubs.o ABSOLUTE
    _printf_llx                              0x00000000   Number         0  stubs.o ABSOLUTE
    _printf_longlong_dec                     0x00000000   Number         0  stubs.o ABSOLUTE
    _printf_longlong_hex                     0x00000000   Number         0  stubs.o ABSOLUTE
    _printf_longlong_oct                     0x00000000   Number         0  stubs.o ABSOLUTE
    _printf_ls                               0x00000000   Number         0  stubs.o ABSOLUTE
    _printf_mbtowc                           0x00000000   Number         0  stubs.o ABSOLUTE
    _printf_n                                0x00000000   Number         0  stubs.o ABSOLUTE
    _printf_o                                0x00000000   Number         0  stubs.o ABSOLUTE
    _printf_p                                0x00000000   Number         0  stubs.o ABSOLUTE
    _printf_percent                          0x00000000   Number         0  stubs.o ABSOLUTE
    _printf_pre_padding                      0x00000000   Number         0  stubs.o ABSOLUTE
    _printf_return_value                     0x00000000   Number         0  stubs.o ABSOLUTE
    _printf_s                                0x00000000   Number         0  stubs.o ABSOLUTE
    _printf_sizespec                         0x00000000   Number         0  stubs.o ABSOLUTE
    _printf_str                              0x00000000   Number         0  stubs.o ABSOLUTE
    _printf_truncate_signed                  0x00000000   Number         0  stubs.o ABSOLUTE
    _printf_truncate_unsigned                0x00000000   Number         0  stubs.o ABSOLUTE
    _printf_u                                0x00000000   Number         0  stubs.o ABSOLUTE
    _printf_wc                               0x00000000   Number         0  stubs.o ABSOLUTE
    _printf_wctomb                           0x00000000   Number         0  stubs.o ABSOLUTE
    _printf_widthprec                        0x00000000   Number         0  stubs.o ABSOLUTE
    _printf_x                                0x00000000   Number         0  stubs.o ABSOLUTE
    _clock_init                               - Undefined Weak Reference
    __Vectors_Size                           0x00000130   Number         0  startup_stm32f10x_hd.o ABSOLUTE
    __Vectors                                0x08000000   Data           4  startup_stm32f10x_hd.o(RESET)
    __Vectors_End                            0x08000130   Data           0  startup_stm32f10x_hd.o(RESET)
    __main                                   0x08000131   Thumb Code     0  entry.o(.ARM.Collect$$$$00000000)
    _main_stk                                0x08000131   Thumb Code     0  entry2.o(.ARM.Collect$$$$00000001)
    _main_scatterload                        0x08000135   Thumb Code     0  entry5.o(.ARM.Collect$$$$00000004)
    __main_after_scatterload                 0x08000139   Thumb Code     0  entry5.o(.ARM.Collect$$$$00000004)
    _main_clock                              0x08000139   Thumb Code     0  entry7b.o(.ARM.Collect$$$$00000008)
    _main_init                               0x08000139   Thumb Code     0  entry8.o(.ARM.Collect$$$$00000009)
    Reset_Handler                            0x08000145   Thumb Code     8  startup_stm32f10x_hd.o(.text)
    ADC1_2_IRQHandler                        0x0800015f   Thumb Code     0  startup_stm32f10x_hd.o(.text)
    ADC3_IRQHandler                          0x0800015f   Thumb Code     0  startup_stm32f10x_hd.o(.text)
    CAN1_RX1_IRQHandler                      0x0800015f   Thumb Code     0  startup_stm32f10x_hd.o(.text)
    CAN1_SCE_IRQHandler                      0x0800015f   Thumb Code     0  startup_stm32f10x_hd.o(.text)
    DMA1_Channel1_IRQHandler                 0x0800015f   Thumb Code     0  startup_stm32f10x_hd.o(.text)
    DMA1_Channel2_IRQHandler                 0x0800015f   Thumb Code     0  startup_stm32f10x_hd.o(.text)
    DMA1_Channel3_IRQHandler                 0x0800015f   Thumb Code     0  startup_stm32f10x_hd.o(.text)
    DMA1_Channel4_IRQHandler                 0x0800015f   Thumb Code     0  startup_stm32f10x_hd.o(.text)
    DMA1_Channel5_IRQHandler                 0x0800015f   Thumb Code     0  startup_stm32f10x_hd.o(.text)
    DMA1_Channel6_IRQHandler                 0x0800015f   Thumb Code     0  startup_stm32f10x_hd.o(.text)
    DMA1_Channel7_IRQHandler                 0x0800015f   Thumb Code     0  startup_stm32f10x_hd.o(.text)
    DMA2_Channel1_IRQHandler                 0x0800015f   Thumb Code     0  startup_stm32f10x_hd.o(.text)
    DMA2_Channel2_IRQHandler                 0x0800015f   Thumb Code     0  startup_stm32f10x_hd.o(.text)
    DMA2_Channel3_IRQHandler                 0x0800015f   Thumb Code     0  startup_stm32f10x_hd.o(.text)
    DMA2_Channel4_5_IRQHandler               0x0800015f   Thumb Code     0  startup_stm32f10x_hd.o(.text)
    FLASH_IRQHandler                         0x0800015f   Thumb Code     0  startup_stm32f10x_hd.o(.text)
    FSMC_IRQHandler                          0x0800015f   Thumb Code     0  startup_stm32f10x_hd.o(.text)
    I2C1_ER_IRQHandler                       0x0800015f   Thumb Code     0  startup_stm32f10x_hd.o(.text)
    I2C1_EV_IRQHandler                       0x0800015f   Thumb Code     0  startup_stm32f10x_hd.o(.text)
    I2C2_ER_IRQHandler                       0x0800015f   Thumb Code     0  startup_stm32f10x_hd.o(.text)
    I2C2_EV_IRQHandler                       0x0800015f   Thumb Code     0  startup_stm32f10x_hd.o(.text)
    RCC_IRQHandler                           0x0800015f   Thumb Code     0  startup_stm32f10x_hd.o(.text)
    RTCAlarm_IRQHandler                      0x0800015f   Thumb Code     0  startup_stm32f10x_hd.o(.text)
    RTC_IRQHandler                           0x0800015f   Thumb Code     0  startup_stm32f10x_hd.o(.text)
    SDIO_IRQHandler                          0x0800015f   Thumb Code     0  startup_stm32f10x_hd.o(.text)
    SPI1_IRQHandler                          0x0800015f   Thumb Code     0  startup_stm32f10x_hd.o(.text)
    SPI2_IRQHandler                          0x0800015f   Thumb Code     0  startup_stm32f10x_hd.o(.text)
    SPI3_IRQHandler                          0x0800015f   Thumb Code     0  startup_stm32f10x_hd.o(.text)
    TAMPER_IRQHandler                        0x0800015f   Thumb Code     0  startup_stm32f10x_hd.o(.text)
    TIM1_BRK_IRQHandler                      0x0800015f   Thumb Code     0  startup_stm32f10x_hd.o(.text)
    TIM1_CC_IRQHandler                       0x0800015f   Thumb Code     0  startup_stm32f10x_hd.o(.text)
    TIM1_TRG_COM_IRQHandler                  0x0800015f   Thumb Code     0  startup_stm32f10x_hd.o(.text)
    TIM1_UP_IRQHandler                       0x0800015f   Thumb Code     0  startup_stm32f10x_hd.o(.text)
    TIM5_IRQHandler                          0x0800015f   Thumb Code     0  startup_stm32f10x_hd.o(.text)
    TIM6_IRQHandler                          0x0800015f   Thumb Code     0  startup_stm32f10x_hd.o(.text)
    TIM8_BRK_IRQHandler                      0x0800015f   Thumb Code     0  startup_stm32f10x_hd.o(.text)
    TIM8_CC_IRQHandler                       0x0800015f   Thumb Code     0  startup_stm32f10x_hd.o(.text)
    TIM8_TRG_COM_IRQHandler                  0x0800015f   Thumb Code     0  startup_stm32f10x_hd.o(.text)
    TIM8_UP_IRQHandler                       0x0800015f   Thumb Code     0  startup_stm32f10x_hd.o(.text)
    UART4_IRQHandler                         0x0800015f   Thumb Code     0  startup_stm32f10x_hd.o(.text)
    UART5_IRQHandler                         0x0800015f   Thumb Code     0  startup_stm32f10x_hd.o(.text)
    USART3_IRQHandler                        0x0800015f   Thumb Code     0  startup_stm32f10x_hd.o(.text)
    USB_HP_CAN1_TX_IRQHandler                0x0800015f   Thumb Code     0  startup_stm32f10x_hd.o(.text)
    WWDG_IRQHandler                          0x0800015f   Thumb Code     0  startup_stm32f10x_hd.o(.text)
    __aeabi_memcpy                           0x08000169   Thumb Code    36  memcpya.o(.text)
    __aeabi_memcpy4                          0x08000169   Thumb Code     0  memcpya.o(.text)
    __aeabi_memcpy8                          0x08000169   Thumb Code     0  memcpya.o(.text)
    __aeabi_memset                           0x0800018d   Thumb Code    14  memseta.o(.text)
    __aeabi_memset4                          0x0800018d   Thumb Code     0  memseta.o(.text)
    __aeabi_memset8                          0x0800018d   Thumb Code     0  memseta.o(.text)
    __aeabi_memclr                           0x0800019b   Thumb Code     4  memseta.o(.text)
    __aeabi_memclr4                          0x0800019b   Thumb Code     0  memseta.o(.text)
    __aeabi_memclr8                          0x0800019b   Thumb Code     0  memseta.o(.text)
    _memset$wrapper                          0x0800019f   Thumb Code    20  memseta.o(.text)
    __aeabi_uldivmod                         0x080001b3   Thumb Code    98  uldiv.o(.text)
    __aeabi_llsl                             0x08000215   Thumb Code    30  llshl.o(.text)
    _ll_shift_l                              0x08000215   Thumb Code     0  llshl.o(.text)
    __aeabi_llsr                             0x08000233   Thumb Code    32  llushr.o(.text)
    _ll_ushift_r                             0x08000233   Thumb Code     0  llushr.o(.text)
    __scatterload                            0x08000255   Thumb Code    28  init.o(.text)
    __scatterload_rt2                        0x08000255   Thumb Code     0  init.o(.text)
    __decompress                             0x08000279   Thumb Code     0  __dczerorl2.o(.text)
    __decompress1                            0x08000279   Thumb Code    92  __dczerorl2.o(.text)
    ADC_Cmd                                  0x080002d5   Thumb Code    22  stm32f10x_adc.o(i.ADC_Cmd)
    ADC_GetCalibrationStatus                 0x080002eb   Thumb Code    20  stm32f10x_adc.o(i.ADC_GetCalibrationStatus)
    ADC_GetConversionValue                   0x080002ff   Thumb Code     8  stm32f10x_adc.o(i.ADC_GetConversionValue)
    ADC_GetFlagStatus                        0x08000307   Thumb Code    18  stm32f10x_adc.o(i.ADC_GetFlagStatus)
    ADC_GetResetCalibrationStatus            0x08000319   Thumb Code    20  stm32f10x_adc.o(i.ADC_GetResetCalibrationStatus)
    ADC_Init                                 0x0800032d   Thumb Code    70  stm32f10x_adc.o(i.ADC_Init)
    ADC_RegularChannelConfig                 0x0800037d   Thumb Code   184  stm32f10x_adc.o(i.ADC_RegularChannelConfig)
    ADC_ResetCalibration                     0x08000435   Thumb Code    10  stm32f10x_adc.o(i.ADC_ResetCalibration)
    ADC_SoftwareStartConvCmd                 0x0800043f   Thumb Code    22  stm32f10x_adc.o(i.ADC_SoftwareStartConvCmd)
    ADC_StartCalibration                     0x08000455   Thumb Code    10  stm32f10x_adc.o(i.ADC_StartCalibration)
    Acquisition_Signal                       0x08000461   Thumb Code   122  interface_testing.o(i.Acquisition_Signal)
    Battery_Empty_ICO                        0x080004e5   Thumb Code   334  interface_main.o(i.Battery_Empty_ICO)
    BlockWrite                               0x08000639   Thumb Code    90  displaydriver.o(i.BlockWrite)
    BlockWrite_Test                          0x08000693   Thumb Code    50  displaydriver.o(i.BlockWrite_Test)
    BusFault_Handler                         0x080006c5   Thumb Code     4  stm32f10x_it.o(i.BusFault_Handler)
    ByteSwap                                 0x080006c9   Thumb Code    12  usb_regs.o(i.ByteSwap)
    CTR_LP                                   0x080006d5   Thumb Code   578  usb_int.o(i.CTR_LP)
    ClearDTOG_RX                             0x08000955   Thumb Code    40  usb_regs.o(i.ClearDTOG_RX)
    ClearDTOG_TX                             0x08000981   Thumb Code    40  usb_regs.o(i.ClearDTOG_TX)
    Clear_Status_Out                         0x080009ad   Thumb Code    28  usb_regs.o(i.Clear_Status_Out)
    Comm_FIFO_Init                           0x080009cd   Thumb Code    68  comm_fifo.o(i.Comm_FIFO_Init)
    Comm_FIFO_RxDataPut                      0x08000a11   Thumb Code    94  comm_fifo.o(i.Comm_FIFO_RxDataPut)
    Common_CalculateCRC                      0x08000a6f   Thumb Code    52  common.o(i.Common_CalculateCRC)
    Common_EXTI_Init                         0x08000aa3   Thumb Code   110  common.o(i.Common_EXTI_Init)
    DebugMon_Handler                         0x08000f19   Thumb Code     2  stm32f10x_it.o(i.DebugMon_Handler)
    Delay_SW                                 0x08000f31   Thumb Code    10  scanmotordriver.o(i.Delay_SW)
    Delay_ms                                 0x08000f3d   Thumb Code    16  main.o(i.Delay_ms)
    Delay_ms_SW                              0x08000f51   Thumb Code    22  stm32f10x_it.o(i.Delay_ms_SW)
    Delay_us                                 0x08000f67   Thumb Code    20  rotationmotor.o(i.Delay_us)
    Delay_us_SW                              0x08000f7b   Thumb Code    20  systemmanage_rtc.o(i.Delay_us_SW)
    DisplayDriver_DrawLine                   0x08000f8f   Thumb Code   174  font.o(i.DisplayDriver_DrawLine)
    DisplayDriver_DrawPic                    0x0800103d   Thumb Code    86  displaydriver.o(i.DisplayDriver_DrawPic)
    DisplayDriver_Init                       0x08001099   Thumb Code   456  displaydriver.o(i.DisplayDriver_Init)
    DisplayDriver_Text16                     0x08001265   Thumb Code   320  font.o(i.DisplayDriver_Text16)
    DisplayDriver_Text16_B                   0x080013ad   Thumb Code   388  font.o(i.DisplayDriver_Text16_B)
    EP1_IN_Callback                          0x08001539   Thumb Code     2  usb_endp.o(i.EP1_IN_Callback)
    EP3_OUT_Callback                         0x0800153d   Thumb Code    54  usb_endp.o(i.EP3_OUT_Callback)
    EXTI0_IRQHandler                         0x0800157d   Thumb Code     2  stm32f10x_it.o(i.EXTI0_IRQHandler)
    EXTI15_10_IRQHandler                     0x0800157f   Thumb Code     2  stm32f10x_it.o(i.EXTI15_10_IRQHandler)
    EXTI1_IRQHandler                         0x08001581   Thumb Code    20  stm32f10x_it.o(i.EXTI1_IRQHandler)
    EXTI2_IRQHandler                         0x08001599   Thumb Code    14  stm32f10x_it.o(i.EXTI2_IRQHandler)
    EXTI3_IRQHandler                         0x080015a7   Thumb Code     2  stm32f10x_it.o(i.EXTI3_IRQHandler)
    EXTI4_IRQHandler                         0x080015a9   Thumb Code    40  stm32f10x_it.o(i.EXTI4_IRQHandler)
    EXTI9_5_IRQHandler                       0x080015d9   Thumb Code    96  stm32f10x_it.o(i.EXTI9_5_IRQHandler)
    EXTIX_Init                               0x08001641   Thumb Code   174  humaninput.o(i.EXTIX_Init)
    EXTI_ClearITPendingBit                   0x080016f1   Thumb Code     6  stm32f10x_exti.o(i.EXTI_ClearITPendingBit)
    EXTI_GetITStatus                         0x080016fd   Thumb Code    34  stm32f10x_exti.o(i.EXTI_GetITStatus)
    EXTI_Init                                0x08001725   Thumb Code   142  stm32f10x_exti.o(i.EXTI_Init)
    EXTI_Key_Confirm_Disable                 0x080017b9   Thumb Code    40  humaninput.o(i.EXTI_Key_Confirm_Disable)
    EXTI_Key_Confirm_Enable                  0x080017e1   Thumb Code    68  humaninput.o(i.EXTI_Key_Confirm_Enable)
    FSMC_NORSRAMCmd                          0x08001825   Thumb Code    46  stm32f10x_fsmc.o(i.FSMC_NORSRAMCmd)
    FSMC_NORSRAMInit                         0x08001859   Thumb Code   224  stm32f10x_fsmc.o(i.FSMC_NORSRAMInit)
    GPIO_EXTILineConfig                      0x08001939   Thumb Code    60  stm32f10x_gpio.o(i.GPIO_EXTILineConfig)
    GPIO_Init                                0x08001979   Thumb Code   274  stm32f10x_gpio.o(i.GPIO_Init)
    GPIO_PinRemapConfig                      0x08001a8d   Thumb Code   138  stm32f10x_gpio.o(i.GPIO_PinRemapConfig)
    GPIO_ReadInputDataBit                    0x08001b1d   Thumb Code    18  stm32f10x_gpio.o(i.GPIO_ReadInputDataBit)
    GPIO_ResetBits                           0x08001b2f   Thumb Code     4  stm32f10x_gpio.o(i.GPIO_ResetBits)
    GPIO_SetBits                             0x08001b33   Thumb Code     4  stm32f10x_gpio.o(i.GPIO_SetBits)
    GPIO_WriteBit                            0x08001b37   Thumb Code    10  stm32f10x_gpio.o(i.GPIO_WriteBit)
    GetEPRxAddr                              0x08001b41   Thumb Code    24  usb_regs.o(i.GetEPRxAddr)
    GetEPRxCount                             0x08001b61   Thumb Code    26  usb_regs.o(i.GetEPRxCount)
    GetEPTxAddr                              0x08001b85   Thumb Code    22  usb_regs.o(i.GetEPTxAddr)
    Get_SerialNum                            0x08001ba5   Thumb Code    42  hw_config.o(i.Get_SerialNum)
    Get_Start_Postion                        0x08001bd9   Thumb Code   208  interface_testing.o(i.Get_Start_Postion)
    Get_sampleBuffer_Max_Value               0x08001cb1   Thumb Code    54  interface_testing.o(i.Get_sampleBuffer_Max_Value)
    HardFault_Handler                        0x08001cf1   Thumb Code     4  stm32f10x_it.o(i.HardFault_Handler)
    HostComm_Init                            0x08001d41   Thumb Code    20  hostcomm.o(i.HostComm_Init)
    HumanInput_Init                          0x08001d75   Thumb Code    58  humaninput.o(i.HumanInput_Init)
    I2C_Ack                                  0x08001db9   Thumb Code    60  systemmanage_rtc.o(i.I2C_Ack)
    I2C_NoAck                                0x08001df9   Thumb Code    60  systemmanage_rtc.o(i.I2C_NoAck)
    IIC_ReadByte                             0x08001e39   Thumb Code    78  systemmanage_rtc.o(i.IIC_ReadByte)
    IIC_Start                                0x08001e8d   Thumb Code    54  systemmanage_rtc.o(i.IIC_Start)
    IIC_Stop                                 0x08001ec9   Thumb Code    60  systemmanage_rtc.o(i.IIC_Stop)
    IIC_WaitAck                              0x08001f09   Thumb Code    80  systemmanage_rtc.o(i.IIC_WaitAck)
    IIC_WriteByte                            0x08001f5d   Thumb Code    96  systemmanage_rtc.o(i.IIC_WriteByte)
    In0_Process                              0x08001fc1   Thumb Code    98  usb_core.o(i.In0_Process)
    Interface_Insert_Cup                     0x08002071   Thumb Code    54  interface_insert_cup.o(i.Interface_Insert_Cup)
    Interface_Key_Event                      0x080020bd   Thumb Code   250  interface_main.o(i.Interface_Key_Event)
    Interface_Main                           0x080021d1   Thumb Code    42  interface_main.o(i.Interface_Main)
    Interface_Main_font                      0x0800220d   Thumb Code    50  interface_main.o(i.Interface_Main_font)
    Interface_Process                        0x08002251   Thumb Code    44  interface_main.o(i.Interface_Process)
    Interface_Quick                          0x08002285   Thumb Code    96  interface_quick.o(i.Interface_Quick)
    Interface_Quick_font                     0x08002301   Thumb Code    42  interface_quick.o(i.Interface_Quick_font)
    Interface_Record                         0x08002339   Thumb Code    60  interface_record.o(i.Interface_Record)
    Interface_Result                         0x0800238d   Thumb Code    66  interface_result.o(i.Interface_Result)
    Interface_Result_2                       0x080023ed   Thumb Code    60  interface_result_2.o(i.Interface_Result_2)
    Interface_Setting                        0x08002441   Thumb Code    60  interface_setting.o(i.Interface_Setting)
    Interface_Standard                       0x08002495   Thumb Code    56  interface_standard.o(i.Interface_Standard)
    Interface_Start                          0x080024dd   Thumb Code    58  interface_start.o(i.Interface_Start)
    Interface_Testing                        0x0800252d   Thumb Code    84  interface_testing.o(i.Interface_Testing)
    Key_Confirm                              0x08002591   Thumb Code    64  humaninput.o(i.Key_Confirm)
    Key_Left                                 0x080025ed   Thumb Code   108  humaninput.o(i.Key_Left)
    Key_Right                                0x08002669   Thumb Code    84  humaninput.o(i.Key_Right)
    LCD_GPIO_Config                          0x08002729   Thumb Code   196  displaydriver.o(i.LCD_GPIO_Config)
    Lcd_ColorBox                             0x08002829   Thumb Code    68  displaydriver.o(i.Lcd_ColorBox)
    Lcd_ColorSpot                            0x08002871   Thumb Code    28  displaydriver.o(i.Lcd_ColorSpot)
    Leave_LowPowerMode                       0x08002891   Thumb Code    22  hw_config.o(i.Leave_LowPowerMode)
    MemManage_Handler                        0x080028b1   Thumb Code     4  stm32f10x_it.o(i.MemManage_Handler)
    NMI_Handler                              0x080028b5   Thumb Code     2  stm32f10x_it.o(i.NMI_Handler)
    NOP_Process                              0x080028b7   Thumb Code     2  usb_core.o(i.NOP_Process)
    NVIC_Init                                0x080028b9   Thumb Code   102  misc.o(i.NVIC_Init)
    NVIC_PriorityGroupConfig                 0x0800292d   Thumb Code    10  misc.o(i.NVIC_PriorityGroupConfig)
    Out0_Process                             0x08002a75   Thumb Code    70  usb_core.o(i.Out0_Process)
    PCF8563_Init                             0x08002ac5   Thumb Code    54  systemmanage_rtc.o(i.PCF8563_Init)
    PCF8563_Read                             0x08002b01   Thumb Code   312  systemmanage_rtc.o(i.PCF8563_Read)
    PMAToUserBufferCopy                      0x08002c39   Thumb Code    32  usb_mem.o(i.PMAToUserBufferCopy)
    PVD_IRQHandler                           0x08002c5d   Thumb Code     2  stm32f10x_it.o(i.PVD_IRQHandler)
    PendSV_Handler                           0x08002c5f   Thumb Code     2  stm32f10x_it.o(i.PendSV_Handler)
    Post0_Process                            0x08002c61   Thumb Code    54  usb_core.o(i.Post0_Process)
    PowerOn                                  0x08002ca9   Thumb Code    54  usb_pwr.o(i.PowerOn)
    QRCode_GPIO_Init                         0x08002ce9   Thumb Code    34  qrcode.o(i.QRCode_GPIO_Init)
    QRCode_Init                              0x08002d11   Thumb Code    12  qrcode.o(i.QRCode_Init)
    QRCode_Trigger_Disabled                  0x08002d1d   Thumb Code    12  qrcode.o(i.QRCode_Trigger_Disabled)
    QRCode_Trigger_Enabled                   0x08002d2d   Thumb Code    12  qrcode.o(i.QRCode_Trigger_Enabled)
    QRCode_Uart_Config                       0x08002d3d   Thumb Code    70  qrcode.o(i.QRCode_Uart_Config)
    QRCode_Uart_GPIO_Init                    0x08002d89   Thumb Code    54  qrcode.o(i.QRCode_Uart_GPIO_Init)
    QRCode_Uart_Init                         0x08002dc5   Thumb Code    24  qrcode.o(i.QRCode_Uart_Init)
    QRCode_Uart_NVIC_Configuration           0x08002ddd   Thumb Code    34  qrcode.o(i.QRCode_Uart_NVIC_Configuration)
    RCC_AHBPeriphClockCmd                    0x08002e01   Thumb Code    26  stm32f10x_rcc.o(i.RCC_AHBPeriphClockCmd)
    RCC_APB1PeriphClockCmd                   0x08002e21   Thumb Code    26  stm32f10x_rcc.o(i.RCC_APB1PeriphClockCmd)
    RCC_APB2PeriphClockCmd                   0x08002e41   Thumb Code    26  stm32f10x_rcc.o(i.RCC_APB2PeriphClockCmd)
    RCC_Configuration                        0x08002e61   Thumb Code    28  displaydriver.o(i.RCC_Configuration)
    RCC_GetClocksFreq                        0x08002e81   Thumb Code   192  stm32f10x_rcc.o(i.RCC_GetClocksFreq)
    RCC_USBCLKConfig                         0x08002f55   Thumb Code     6  stm32f10x_rcc.o(i.RCC_USBCLKConfig)
    Resume                                   0x08002f61   Thumb Code   194  usb_pwr.o(i.Resume)
    Resume_Init                              0x08003031   Thumb Code    30  usb_pwr.o(i.Resume_Init)
    RotaMotorDriver_GPIO_Init                0x08003055   Thumb Code    76  rotationmotor.o(i.RotaMotorDriver_GPIO_Init)
    RotaMotorDriver_PositionSensor_Init      0x080030a5   Thumb Code    96  rotationmotordriver_positionsensor.o(i.RotaMotorDriver_PositionSensor_Init)
    RotaMotorDriver_PositionSensor_Int_Disable 0x08003109   Thumb Code    32  rotationmotordriver_positionsensor.o(i.RotaMotorDriver_PositionSensor_Int_Disable)
    RotationMotor_Init                       0x08003129   Thumb Code    12  rotationmotor.o(i.RotationMotor_Init)
    RotationMotor_Input_StepDrive            0x08003135   Thumb Code    40  rotationmotor.o(i.RotationMotor_Input_StepDrive)
    RotationMotor_SelfCheck_StepDrive        0x08003225   Thumb Code    54  rotationmotor.o(i.RotationMotor_SelfCheck_StepDrive)
    RotationMotor_StepDrive_Min              0x08003265   Thumb Code    32  rotationmotor.o(i.RotationMotor_StepDrive_Min)
    SOF_Callback                             0x08003285   Thumb Code   166  usb_endp.o(i.SOF_Callback)
    SPI_Cmd                                  0x08003345   Thumb Code    24  stm32f10x_spi.o(i.SPI_Cmd)
    SPI_I2S_GetFlagStatus                    0x0800335d   Thumb Code    18  stm32f10x_spi.o(i.SPI_I2S_GetFlagStatus)
    SPI_I2S_SendData                         0x0800336f   Thumb Code     4  stm32f10x_spi.o(i.SPI_I2S_SendData)
    SPI_Init                                 0x08003373   Thumb Code    60  stm32f10x_spi.o(i.SPI_Init)
    SVC_Handler                              0x080033af   Thumb Code     2  stm32f10x_it.o(i.SVC_Handler)
    ScanMotorDriver_A1                       0x080033b1   Thumb Code    36  scanmotordriver.o(i.ScanMotorDriver_A1)
    ScanMotorDriver_A2                       0x080033dd   Thumb Code    36  scanmotordriver.o(i.ScanMotorDriver_A2)
    ScanMotorDriver_B1                       0x08003409   Thumb Code    36  scanmotordriver.o(i.ScanMotorDriver_B1)
    ScanMotorDriver_B2                       0x08003435   Thumb Code    36  scanmotordriver.o(i.ScanMotorDriver_B2)
    ScanMotorDriver_Control                  0x08003461   Thumb Code    26  scanmotordriver.o(i.ScanMotorDriver_Control)
    ScanMotorDriver_GPIO_Init                0x08003481   Thumb Code   138  scanmotordriver.o(i.ScanMotorDriver_GPIO_Init)
    ScanMotorDriver_Goto_BasePosition        0x08003519   Thumb Code    36  scanmotordriver.o(i.ScanMotorDriver_Goto_BasePosition)
    ScanMotorDriver_Goto_CentrePosition      0x08003545   Thumb Code    20  scanmotordriver.o(i.ScanMotorDriver_Goto_CentrePosition)
    ScanMotorDriver_Goto_DetectionPosition   0x08003559   Thumb Code    20  scanmotordriver.o(i.ScanMotorDriver_Goto_DetectionPosition)
    ScanMotorDriver_Init                     0x0800356d   Thumb Code    12  scanmotordriver.o(i.ScanMotorDriver_Init)
    ScanMotorDriver_Move                     0x08003579   Thumb Code    66  scanmotordriver.o(i.ScanMotorDriver_Move)
    ScanMotorDriver_MoveOneStep              0x080035c1   Thumb Code   142  scanmotordriver.o(i.ScanMotorDriver_MoveOneStep)
    ScanMotorDriver_PositionSensor_Init      0x08003651   Thumb Code    96  scanmotordriver_positionsensor.o(i.ScanMotorDriver_PositionSensor_Init)
    ScanMotorDriver_PositionSensor_Int_Disable 0x080036b5   Thumb Code    32  scanmotordriver_positionsensor.o(i.ScanMotorDriver_PositionSensor_Int_Disable)
    ScanMotorDriver_PositionSensor_Int_Enable 0x080036d5   Thumb Code    32  scanmotordriver_positionsensor.o(i.ScanMotorDriver_PositionSensor_Int_Enable)
    ScanMotorDriver_SelfCheck_StepDrive      0x080036f5   Thumb Code    60  scanmotordriver.o(i.ScanMotorDriver_SelfCheck_StepDrive)
    SetBTABLE                                0x08003735   Thumb Code    12  usb_regs.o(i.SetBTABLE)
    SetDeviceAddress                         0x08003745   Thumb Code    64  usb_core.o(i.SetDeviceAddress)
    SetEPRxAddr                              0x0800378d   Thumb Code    26  usb_regs.o(i.SetEPRxAddr)
    SetEPRxCount                             0x080037b1   Thumb Code    68  usb_regs.o(i.SetEPRxCount)
    SetEPRxStatus                            0x080037fd   Thumb Code    54  usb_regs.o(i.SetEPRxStatus)
    SetEPRxValid                             0x08003839   Thumb Code    40  usb_regs.o(i.SetEPRxValid)
    SetEPTxAddr                              0x08003865   Thumb Code    24  usb_regs.o(i.SetEPTxAddr)
    SetEPTxCount                             0x08003885   Thumb Code    20  usb_regs.o(i.SetEPTxCount)
    SetEPTxStatus                            0x080038a1   Thumb Code    54  usb_regs.o(i.SetEPTxStatus)
    SetEPTxValid                             0x080038dd   Thumb Code    40  usb_regs.o(i.SetEPTxValid)
    SetEPType                                0x08003909   Thumb Code    24  usb_regs.o(i.SetEPType)
    Set_System                               0x080039f5   Thumb Code    70  hw_config.o(i.Set_System)
    Set_USBClock                             0x08003a45   Thumb Code    18  hw_config.o(i.Set_USBClock)
    Setup0_Process                           0x08003a59   Thumb Code   170  usb_core.o(i.Setup0_Process)
    SignalProcess_Collecting_Data            0x08003b11   Thumb Code    16  signalprocess_sample.o(i.SignalProcess_Collecting_Data)
    SignalSample_Moving_Average_Data         0x08003b21   Thumb Code    58  interface_testing.o(i.SignalSample_Moving_Average_Data)
    SignalSample_OutputSamples               0x08003b5b   Thumb Code     2  signalprocess_sample.o(i.SignalSample_OutputSamples)
    SignalSample_SampleStrip                 0x08003b5d   Thumb Code   156  signalprocess_sample.o(i.SignalSample_SampleStrip)
    SignalSample_Sample_AD84XX_Init          0x08003c09   Thumb Code   148  signalprocess_sample.o(i.SignalSample_Sample_AD84XX_Init)
    SignalSample_Sample_AD84XX_SendByte      0x08003ca5   Thumb Code    28  signalprocess_sample.o(i.SignalSample_Sample_AD84XX_SendByte)
    SignalSample_Sample_ADC_Init             0x08003cc5   Thumb Code   140  signalprocess_sample.o(i.SignalSample_Sample_ADC_Init)
    SignalSample_Sample_EnterCriticalArea    0x08003d59   Thumb Code    20  signalprocess_sample.o(i.SignalSample_Sample_EnterCriticalArea)
    SignalSample_Sample_ExitCriticalArea     0x08003d75   Thumb Code    10  signalprocess_sample.o(i.SignalSample_Sample_ExitCriticalArea)
    SignalSample_Sample_Init                 0x08003d7f   Thumb Code    28  signalprocess_sample.o(i.SignalSample_Sample_Init)
    SignalSample_Sample_LED_Init             0x08003d9d   Thumb Code    36  signalprocess_sample.o(i.SignalSample_Sample_LED_Init)
    SignalSample_Sample_Sampling             0x08003dc5   Thumb Code    88  signalprocess_sample.o(i.SignalSample_Sample_Sampling)
    SignalSample_Sample_SetResistor          0x08003e21   Thumb Code    14  signalprocess_sample.o(i.SignalSample_Sample_SetResistor)
    SignalSample_Sample_Set_LED              0x08003e35   Thumb Code    26  signalprocess_sample.o(i.SignalSample_Sample_Set_LED)
    SignalSample_Sample_Start                0x08003e55   Thumb Code    18  signalprocess_sample.o(i.SignalSample_Sample_Start)
    SignalSample_Sample_Stop                 0x08003e6d   Thumb Code    14  signalprocess_sample.o(i.SignalSample_Sample_Stop)
    SignalSample_Sample_Strip_Sensor_Init    0x08003e81   Thumb Code    42  signalprocess_sample.o(i.SignalSample_Sample_Strip_Sensor_Init)
    SignalSample_Sample_Timer_Disabled       0x08003eb1   Thumb Code    18  signalprocess_sample.o(i.SignalSample_Sample_Timer_Disabled)
    SignalSample_Sample_Timer_Init           0x08003ec9   Thumb Code    88  signalprocess_sample.o(i.SignalSample_Sample_Timer_Init)
    SignalSample_Sample_Timer_Int            0x08003f25   Thumb Code    16  signalprocess_sample.o(i.SignalSample_Sample_Timer_Int)
    SignalSample_SetResistor                 0x08003f39   Thumb Code    48  signalprocess_sample.o(i.SignalSample_SetResistor)
    Standard_ClearFeature                    0x08003f6d   Thumb Code   314  usb_core.o(i.Standard_ClearFeature)
    Standard_GetConfiguration                0x080040bd   Thumb Code    34  usb_core.o(i.Standard_GetConfiguration)
    Standard_GetDescriptorData               0x080040e9   Thumb Code    32  usb_core.o(i.Standard_GetDescriptorData)
    Standard_GetInterface                    0x0800410d   Thumb Code    34  usb_core.o(i.Standard_GetInterface)
    Standard_GetStatus                       0x08004139   Thumb Code   230  usb_core.o(i.Standard_GetStatus)
    Standard_SetConfiguration                0x08004231   Thumb Code    60  usb_core.o(i.Standard_SetConfiguration)
    Standard_SetDeviceFeature                0x08004279   Thumb Code    30  usb_core.o(i.Standard_SetDeviceFeature)
    Standard_SetEndPointFeature              0x080042a1   Thumb Code   172  usb_core.o(i.Standard_SetEndPointFeature)
    Standard_SetInterface                    0x0800435d   Thumb Code    96  usb_core.o(i.Standard_SetInterface)
    Status_Init                              0x080043c9   Thumb Code    76  main.o(i.Status_Init)
    Suspend                                  0x08004425   Thumb Code   224  usb_pwr.o(i.Suspend)
    SysTick_Handler                          0x08004515   Thumb Code   164  stm32f10x_it.o(i.SysTick_Handler)
    SysTick_Init                             0x080045d5   Thumb Code    84  main.o(i.SysTick_Init)
    SystemInit                               0x08004631   Thumb Code    78  system_stm32f10x.o(i.SystemInit)
    SystemManage_5V_Disabled                 0x08004691   Thumb Code    12  scanmotordriver.o(i.SystemManage_5V_Disabled)
    SystemManage_5V_Enabled                  0x080046a1   Thumb Code    12  scanmotordriver.o(i.SystemManage_5V_Enabled)
    SystemManage_CheckPowerOff               0x080046b1   Thumb Code    20  humaninput.o(i.SystemManage_CheckPowerOff)
    TIM2_IRQHandler                          0x080046cd   Thumb Code   162  usb_endp.o(i.TIM2_IRQHandler)
    TIM3_IRQHandler                          0x0800477d   Thumb Code    36  stm32f10x_it.o(i.TIM3_IRQHandler)
    TIM4_IRQHandler                          0x080047a9   Thumb Code     2  stm32f10x_it.o(i.TIM4_IRQHandler)
    TIM7_IRQHandler                          0x080047ab   Thumb Code     2  stm32f10x_it.o(i.TIM7_IRQHandler)
    TIM_ClearITPendingBit                    0x080047ad   Thumb Code     6  stm32f10x_tim.o(i.TIM_ClearITPendingBit)
    TIM_Cmd                                  0x080047b3   Thumb Code    24  stm32f10x_tim.o(i.TIM_Cmd)
    TIM_GetITStatus                          0x080047cb   Thumb Code    34  stm32f10x_tim.o(i.TIM_GetITStatus)
    TIM_ITConfig                             0x080047ed   Thumb Code    24  stm32f10x_tim.o(i.TIM_ITConfig)
    TIM_TimeBaseInit                         0x08004805   Thumb Code   122  stm32f10x_tim.o(i.TIM_TimeBaseInit)
    TimeOut_Reload                           0x080048a9   Thumb Code     8  usb_endp.o(i.TimeOut_Reload)
    TimingDelay_Decrement                    0x080048b1   Thumb Code    18  main.o(i.TimingDelay_Decrement)
    UI_Draw_Block                            0x080048c9   Thumb Code   100  interface_main.o(i.UI_Draw_Block)
    UI_Draw_Block_Insert_Cup                 0x08004931   Thumb Code    64  interface_insert_cup.o(i.UI_Draw_Block_Insert_Cup)
    UI_Draw_Block_Quick                      0x08004979   Thumb Code    86  interface_quick.o(i.UI_Draw_Block_Quick)
    UI_Draw_Block_Quick_Font                 0x080049d9   Thumb Code    64  interface_quick.o(i.UI_Draw_Block_Quick_Font)
    UI_Draw_Block_Record                     0x08004a21   Thumb Code    80  interface_record.o(i.UI_Draw_Block_Record)
    UI_Draw_Block_Setting                    0x08004a75   Thumb Code    80  interface_setting.o(i.UI_Draw_Block_Setting)
    UI_Draw_Block_Standard                   0x08004ac9   Thumb Code    64  interface_standard.o(i.UI_Draw_Block_Standard)
    UI_Draw_Block_font                       0x08004b11   Thumb Code   228  interface_main.o(i.UI_Draw_Block_font)
    UI_Draw_Status_Bar                       0x08004c01   Thumb Code    58  interface_main.o(i.UI_Draw_Status_Bar)
    UI_Draw_Window                           0x08004c51   Thumb Code    30  interface_main.o(i.UI_Draw_Window)
    UI_Draw_Window_Insert_Cup                0x08004c75   Thumb Code    30  interface_insert_cup.o(i.UI_Draw_Window_Insert_Cup)
    UI_Draw_Window_Quick                     0x08004c99   Thumb Code    30  interface_quick.o(i.UI_Draw_Window_Quick)
    UI_Draw_Window_Quick_font                0x08004cbd   Thumb Code    30  interface_quick.o(i.UI_Draw_Window_Quick_font)
    UI_Draw_Window_Record                    0x08004ce1   Thumb Code    36  interface_record.o(i.UI_Draw_Window_Record)
    UI_Draw_Window_Result                    0x08004d0d   Thumb Code    30  interface_result.o(i.UI_Draw_Window_Result)
    UI_Draw_Window_Result_2                  0x08004d31   Thumb Code    30  interface_result_2.o(i.UI_Draw_Window_Result_2)
    UI_Draw_Window_Setting                   0x08004d55   Thumb Code    36  interface_setting.o(i.UI_Draw_Window_Setting)
    UI_Draw_Window_Standard                  0x08004d81   Thumb Code    66  interface_standard.o(i.UI_Draw_Window_Standard)
    UI_Draw_Window_Start                     0x08004dcd   Thumb Code    74  interface_start.o(i.UI_Draw_Window_Start)
    UI_Draw_Window_Testing                   0x08004e21   Thumb Code    30  interface_testing.o(i.UI_Draw_Window_Testing)
    UI_Draw_Window_font                      0x08004e45   Thumb Code    36  interface_main.o(i.UI_Draw_Window_font)
    UI_Draw_block_Result                     0x08004e71   Thumb Code    86  interface_result.o(i.UI_Draw_block_Result)
    UI_Draw_block_Result_2                   0x08004ed1   Thumb Code    86  interface_result_2.o(i.UI_Draw_block_Result_2)
    UI_Draw_block_Start                      0x08004f31   Thumb Code    64  interface_start.o(i.UI_Draw_block_Start)
    UI_Draw_block_Testing                    0x08004f79   Thumb Code    64  interface_testing.o(i.UI_Draw_block_Testing)
    USART1_IRQHandler                        0x08004fc1   Thumb Code    66  qrcode.o(i.USART1_IRQHandler)
    USART2_IRQHandler                        0x08005019   Thumb Code   186  hostcomm.o(i.USART2_IRQHandler)
    USART_ClearFlag                          0x080050f5   Thumb Code    18  stm32f10x_usart.o(i.USART_ClearFlag)
    USART_ClearITPendingBit                  0x08005107   Thumb Code    30  stm32f10x_usart.o(i.USART_ClearITPendingBit)
    USART_Cmd                                0x08005125   Thumb Code    24  stm32f10x_usart.o(i.USART_Cmd)
    USART_GetITStatus                        0x0800513d   Thumb Code    84  stm32f10x_usart.o(i.USART_GetITStatus)
    USART_ITConfig                           0x08005191   Thumb Code    74  stm32f10x_usart.o(i.USART_ITConfig)
    USART_Init                               0x080051dd   Thumb Code   210  stm32f10x_usart.o(i.USART_Init)
    USART_ReceiveData                        0x080052b5   Thumb Code    10  stm32f10x_usart.o(i.USART_ReceiveData)
    USBWakeUp_IRQHandler                     0x080052bf   Thumb Code    12  usb_it.o(i.USBWakeUp_IRQHandler)
    USB_BasicInit                            0x080052cd   Thumb Code   146  usb.o(i.USB_BasicInit)
    USB_Cable_Config                         0x08005365   Thumb Code    30  hw_config.o(i.USB_Cable_Config)
    USB_Config                               0x08005389   Thumb Code    20  hw_config.o(i.USB_Config)
    USB_Init                                 0x0800539d   Thumb Code    36  usb_init.o(i.USB_Init)
    USB_Interrupts_Config                    0x080053d9   Thumb Code    34  hw_config.o(i.USB_Interrupts_Config)
    USB_Istr                                 0x080053fd   Thumb Code   414  usb_istr.o(i.USB_Istr)
    USB_LP_CAN1_RX0_IRQHandler               0x080055bd   Thumb Code     8  usb_it.o(i.USB_LP_CAN1_RX0_IRQHandler)
    USB_SIL_Init                             0x080055c5   Thumb Code    28  usb_sil.o(i.USB_SIL_Init)
    USB_SIL_Read                             0x080055e9   Thumb Code    46  usb_sil.o(i.USB_SIL_Read)
    USB_VirtualCOM_Init                      0x08005619   Thumb Code    18  usb.o(i.USB_VirtualCOM_Init)
    UsageFault_Handler                       0x08005631   Thumb Code     4  stm32f10x_it.o(i.UsageFault_Handler)
    UserToPMABufferCopy                      0x08005635   Thumb Code    52  usb_mem.o(i.UserToPMABufferCopy)
    Virtual_Com_Port_Data_Setup              0x0800566d   Thumb Code    82  usb_prop.o(i.Virtual_Com_Port_Data_Setup)
    Virtual_Com_Port_GetConfigDescriptor     0x080056d1   Thumb Code    14  usb_prop.o(i.Virtual_Com_Port_GetConfigDescriptor)
    Virtual_Com_Port_GetDeviceDescriptor     0x080056e5   Thumb Code    14  usb_prop.o(i.Virtual_Com_Port_GetDeviceDescriptor)
    Virtual_Com_Port_GetLineCoding           0x080056f9   Thumb Code    20  usb_prop.o(i.Virtual_Com_Port_GetLineCoding)
    Virtual_Com_Port_GetStringDescriptor     0x08005715   Thumb Code    32  usb_prop.o(i.Virtual_Com_Port_GetStringDescriptor)
    Virtual_Com_Port_Get_Interface_Setting   0x0800573d   Thumb Code    22  usb_prop.o(i.Virtual_Com_Port_Get_Interface_Setting)
    Virtual_Com_Port_NoData_Setup            0x08005755   Thumb Code    36  usb_prop.o(i.Virtual_Com_Port_NoData_Setup)
    Virtual_Com_Port_Reset                   0x0800577d   Thumb Code   216  usb_prop.o(i.Virtual_Com_Port_Reset)
    Virtual_Com_Port_SetConfiguration        0x08005865   Thumb Code    14  usb_prop.o(i.Virtual_Com_Port_SetConfiguration)
    Virtual_Com_Port_SetDeviceAddress        0x0800587d   Thumb Code     8  usb_prop.o(i.Virtual_Com_Port_SetDeviceAddress)
    Virtual_Com_Port_SetLineCoding           0x08005889   Thumb Code    20  usb_prop.o(i.Virtual_Com_Port_SetLineCoding)
    Virtual_Com_Port_Status_In               0x080058a5   Thumb Code    16  usb_prop.o(i.Virtual_Com_Port_Status_In)
    Virtual_Com_Port_Status_Out              0x080058b9   Thumb Code     2  usb_prop.o(i.Virtual_Com_Port_Status_Out)
    Virtual_Com_Port_init                    0x080058bd   Thumb Code    30  usb_prop.o(i.Virtual_Com_Port_init)
    __0sprintf$8                             0x080058f9   Thumb Code    34  printf8.o(i.__0sprintf$8)
    __1sprintf$8                             0x080058f9   Thumb Code     0  printf8.o(i.__0sprintf$8)
    __2sprintf                               0x080058f9   Thumb Code     0  printf8.o(i.__0sprintf$8)
    __scatterload_copy                       0x08005921   Thumb Code    14  handlers.o(i.__scatterload_copy)
    __scatterload_null                       0x0800592f   Thumb Code     2  handlers.o(i.__scatterload_null)
    __scatterload_zeroinit                   0x08005931   Thumb Code    14  handlers.o(i.__scatterload_zeroinit)
    main                                     0x08005dc1   Thumb Code    64  main.o(i.main)
    asc2_1608                                0x08005e04   Data        1520  displaydriver_fontlib.o(.constdata)
    sysHzzk                                  0x080063f4   Data         102  displaydriver_fontlib.o(.constdata)
    asc16                                    0x0800645a   Data        1520  displaydriver_fontlib.o(.constdata)
    hz16                                     0x08006a4a   Data       12172  displaydriver_fontlib.o(.constdata)
    gImage_PIC_Standard                      0x080099d8   Data        4050  interface_main.o(.constdata)
    gImage_PIC_Quick                         0x0800a9aa   Data        4050  interface_main.o(.constdata)
    gImage_PIC_Record                        0x0800b97c   Data        4050  interface_main.o(.constdata)
    gImage_PIC_Setting                       0x0800c94e   Data        4050  interface_main.o(.constdata)
    gImage_PIC_System_Time                   0x0800d920   Data        4050  interface_main.o(.constdata)
    gImage_PIC_About_Machine                 0x0800e8f2   Data        4050  interface_main.o(.constdata)
    gImage_Right_arrow                       0x0800f8c4   Data        1050  interface_main.o(.constdata)
    gImage_Left_arrow                        0x0800fcde   Data        1050  interface_main.o(.constdata)
    gImage_Power_on                          0x080100f8   Data       40960  interface_main.o(.constdata)
    crcTable                                 0x0801a12c   Data          32  common.o(.constdata)
    Virtual_Com_Port_DeviceDescriptor        0x0801a14c   Data          18  usb_desc.o(.constdata)
    Virtual_Com_Port_ConfigDescriptor        0x0801a15e   Data          67  usb_desc.o(.constdata)
    Virtual_Com_Port_StringLangID            0x0801a1a1   Data           4  usb_desc.o(.constdata)
    Virtual_Com_Port_StringVendor            0x0801a1a5   Data          24  usb_desc.o(.constdata)
    Virtual_Com_Port_StringProduct           0x0801a1bd   Data          38  usb_desc.o(.constdata)
    Region$$Table$$Base                      0x0801a34c   Number         0  anon$$obj.o(Region$$Table)
    Region$$Table$$Limit                     0x0801a36c   Number         0  anon$$obj.o(Region$$Table)
    Power_Open                               0x20000018   Data           1  main.o(.data)
    Display_Time                             0x20000019   Data           1  main.o(.data)
    Count_Down                               0x20000020   Data           2  stm32f10x_it.o(.data)
    Exti_lock                                0x20000022   Data           1  stm32f10x_it.o(.data)
    hours                                    0x20000024   Data           2  stm32f10x_it.o(.data)
    minutes                                  0x20000026   Data           2  stm32f10x_it.o(.data)
    seconds                                  0x20000028   Data           2  stm32f10x_it.o(.data)
    se_count                                 0x2000002a   Data           2  stm32f10x_it.o(.data)
    keyupCnt                                 0x2000002c   Data           2  stm32f10x_it.o(.data)
    key_holdon_ms                            0x2000002e   Data           2  stm32f10x_it.o(.data)
    key_fall_flag                            0x20000030   Data           1  stm32f10x_it.o(.data)
    short_key_flag                           0x20000031   Data           1  stm32f10x_it.o(.data)
    doubleClick                              0x20000032   Data           1  stm32f10x_it.o(.data)
    keyUpFlag                                0x20000033   Data           1  stm32f10x_it.o(.data)
    long_key_flag                            0x20000034   Data           1  stm32f10x_it.o(.data)
    time_ms                                  0x20000036   Data           2  stm32f10x_it.o(.data)
    Step_count                               0x20000038   Data           4  rotationmotor.o(.data)
    Num_Down                                 0x2000003c   Data           1  rotationmotor.o(.data)
    Step1                                    0x2000003e   Data          16  rotationmotor.o(.data)
    Step2                                    0x2000004e   Data          16  rotationmotor.o(.data)
    key_open                                 0x2000005e   Data           1  humaninput.o(.data)
    key_state                                0x2000005f   Data           1  humaninput.o(.data)
    Key_control                              0x20000060   Data           1  humaninput.o(.data)
    Interface_Key                            0x20000061   Data           1  humaninput.o(.data)
    key_state_confirm                        0x20000062   Data           1  humaninput.o(.data)
    UI_state                                 0x20000064   Data           1  interface_main.o(.data)
    UI_WindowBlocks                          0x20000066   Data           2  interface_main.o(.data)
    block_standard                           0x20000068   Data          60  interface_main.o(.data)
    block_quick                              0x200000a4   Data          60  interface_main.o(.data)
    block_record                             0x200000e0   Data          60  interface_main.o(.data)
    block_settings                           0x2000011c   Data          60  interface_main.o(.data)
    block_font                               0x20000158   Data          80  interface_main.o(.data)
    UI_WindowBlocksAttrArray_Main            0x200001a8   Data          16  interface_main.o(.data)
    UI_WindowBlocksAttrArray_Main_font       0x200001b8   Data           4  interface_main.o(.data)
    UI_WindowBlocks_Standard                 0x200001bc   Data           2  interface_standard.o(.data)
    QR_Code                                  0x200001be   Data           1  interface_standard.o(.data)
    block_Standard_Back                      0x200001c0   Data          32  interface_standard.o(.data)
    block_Standard_Number                    0x200001e0   Data          32  interface_standard.o(.data)
    block_Standard_Name                      0x20000200   Data          32  interface_standard.o(.data)
    block_Standard_1                         0x20000220   Data          32  interface_standard.o(.data)
    block_Standard_2                         0x20000240   Data          32  interface_standard.o(.data)
    block_Standard_3                         0x20000260   Data          32  interface_standard.o(.data)
    block_Standard_4                         0x20000280   Data          32  interface_standard.o(.data)
    block_Standard_5                         0x200002a0   Data          32  interface_standard.o(.data)
    block_Standard_6                         0x200002c0   Data          32  interface_standard.o(.data)
    block_Standard_7                         0x200002e0   Data          32  interface_standard.o(.data)
    block_Standard_8                         0x20000300   Data          32  interface_standard.o(.data)
    block_Standard_9                         0x20000320   Data          32  interface_standard.o(.data)
    block_Standard_10                        0x20000340   Data          32  interface_standard.o(.data)
    block_Standard_Confirm                   0x20000360   Data          32  interface_standard.o(.data)
    UI_WindowBlocksAttrArray_Standard        0x20000380   Data         560  interface_standard.o(.data)
    UI_WindowBlocks_Quick                    0x200005b0   Data           2  interface_quick.o(.data)
    UI_WindowBlocks_Quick_font               0x200005b2   Data           2  interface_quick.o(.data)
    Cup_Exist                                0x200005b4   Data           1  interface_quick.o(.data)
    block_Quick_1                            0x200005b8   Data          48  interface_quick.o(.data)
    block_Quick_2                            0x200005e8   Data          48  interface_quick.o(.data)
    block_Quick_3                            0x20000618   Data          48  interface_quick.o(.data)
    block_Quick_4                            0x20000648   Data          48  interface_quick.o(.data)
    block_Quick_5                            0x20000678   Data          48  interface_quick.o(.data)
    block_Quick_6                            0x200006a8   Data          48  interface_quick.o(.data)
    block_Quick_7                            0x200006d8   Data          48  interface_quick.o(.data)
    UI_WindowBlocksAttrArray_Quick           0x20000708   Data          16  interface_quick.o(.data)
    UI_WindowBlocksAttrArray_Quick_font      0x20000718   Data          12  interface_quick.o(.data)
    UI_WindowBlocks_Record                   0x20000724   Data           2  interface_record.o(.data)
    block_Record_1                           0x20000728   Data          44  interface_record.o(.data)
    block_Record_2                           0x20000754   Data          44  interface_record.o(.data)
    block_Record_3                           0x20000780   Data          44  interface_record.o(.data)
    block_Record_4                           0x200007ac   Data          44  interface_record.o(.data)
    block_Record_5                           0x200007d8   Data          44  interface_record.o(.data)
    block_Record_6                           0x20000804   Data          44  interface_record.o(.data)
    block_Record_7                           0x20000830   Data          44  interface_record.o(.data)
    block_Record_8                           0x2000085c   Data          44  interface_record.o(.data)
    UI_WindowBlocksAttrArray_Record          0x20000888   Data          32  interface_record.o(.data)
    UI_WindowBlocks_Setting                  0x200008a8   Data           2  interface_setting.o(.data)
    block_Setting_1                          0x200008ac   Data          48  interface_setting.o(.data)
    block_Setting_2                          0x200008dc   Data          48  interface_setting.o(.data)
    block_Setting_3                          0x2000090c   Data          48  interface_setting.o(.data)
    UI_WindowBlocksAttrArray_Setting         0x2000093c   Data          12  interface_setting.o(.data)
    Char_Count                               0x20000948   Data           2  interface_result.o(.data)
    Page_Flag                                0x2000094a   Data           1  interface_result.o(.data)
    UI_WindowBlocks_Result                   0x2000094c   Data           2  interface_result.o(.data)
    block_Result_Back                        0x20000950   Data          48  interface_result.o(.data)
    block_Result_Item                        0x20000980   Data          48  interface_result.o(.data)
    block_Result_AMP                         0x200009b0   Data          48  interface_result.o(.data)
    block_Result_COC                         0x200009e0   Data          48  interface_result.o(.data)
    block_Result_THC                         0x20000a10   Data          48  interface_result.o(.data)
    block_Result_MET                         0x20000a40   Data          48  interface_result.o(.data)
    block_Result_OPI                         0x20000a70   Data          48  interface_result.o(.data)
    block_Result_Right_arrow                 0x20000aa0   Data          48  interface_result.o(.data)
    UI_WindowBlocksAttrArray_Result          0x20000ad0   Data          32  interface_result.o(.data)
    UI_WindowBlocks_Start                    0x20000af0   Data           2  interface_start.o(.data)
    Cup_Count                                0x20000af2   Data           1  interface_start.o(.data)
    block_Start_Back                         0x20000af4   Data          32  interface_start.o(.data)
    block_Start_Name                         0x20000b14   Data          32  interface_start.o(.data)
    block_Start_Number                       0x20000b34   Data          32  interface_start.o(.data)
    block_Start_1                            0x20000b54   Data          32  interface_start.o(.data)
    block_Start_2                            0x20000b74   Data          32  interface_start.o(.data)
    block_Start_3                            0x20000b94   Data          32  interface_start.o(.data)
    block_Start_4                            0x20000bb4   Data          32  interface_start.o(.data)
    block_Start_5                            0x20000bd4   Data          32  interface_start.o(.data)
    block_Start_6                            0x20000bf4   Data          32  interface_start.o(.data)
    block_Start_7                            0x20000c14   Data          32  interface_start.o(.data)
    block_Start_8                            0x20000c34   Data          32  interface_start.o(.data)
    block_Start_9                            0x20000c54   Data          32  interface_start.o(.data)
    block_Start_10                           0x20000c74   Data          32  interface_start.o(.data)
    UI_WindowBlocksAttrArray_Start           0x20000c94   Data         520  interface_start.o(.data)
    UI_WindowBlocks_Testing                  0x20000e9c   Data           2  interface_testing.o(.data)
    block_Testing_1                          0x20000ea0   Data          32  interface_testing.o(.data)
    block_Testing_2                          0x20000ec0   Data          32  interface_testing.o(.data)
    UI_WindowBlocksAttrArray_Testing         0x20000ee0   Data           8  interface_testing.o(.data)
    Check_Count                              0x20000ee8   Data           1  scanmotordriver.o(.data)
    CCR2_Val                                 0x20000eec   Data           4  scanmotordriver.o(.data)
    ScanMotorDriver_InBasePosition           0x20000ef0   Data           1  scanmotordriver.o(.data)
    QRCode_count                             0x20000ef2   Data           2  qrcode.o(.data)
    QRCode_existed                           0x20000ef4   Data           1  qrcode.o(.data)
    QRCode_received                          0x20000ef5   Data           1  qrcode.o(.data)
    SystemManage_SetTime                     0x20000ef6   Data           8  systemmanage_rtc.o(.data)
    SystemManage_CurrentTime                 0x20000efe   Data           8  systemmanage_rtc.o(.data)
    SignalSample_moveThenSample              0x20000f06   Data           1  signalprocess_sample.o(.data)
    SignalSample_endDetection                0x20000f07   Data           1  signalprocess_sample.o(.data)
    SignalSample_count                       0x20000f08   Data           2  signalprocess_sample.o(.data)
    SignalSample_ProcessCount                0x20000f0a   Data           2  signalprocess_sample.o(.data)
    SignalSample_startSampling               0x20000f0c   Data           1  signalprocess_sample.o(.data)
    SignalSample_resistorValue               0x20000f0d   Data           1  signalprocess_sample.o(.data)
    SignalSample_resistorValueStored         0x20000f0e   Data           1  signalprocess_sample.o(.data)
    SignalProcess_output                     0x20000f0f   Data           1  signalprocess_sample.o(.data)
    UI_WindowBlocks_Result_2                 0x20000f10   Data           2  interface_result_2.o(.data)
    block_Result_WCG                         0x20000f14   Data          48  interface_result_2.o(.data)
    block_Result_EDG                         0x20000f44   Data          48  interface_result_2.o(.data)
    block_Result_UZI                         0x20000f74   Data          48  interface_result_2.o(.data)
    block_Result_XZG                         0x20000fa4   Data          48  interface_result_2.o(.data)
    block_Result_PCY                         0x20000fd4   Data          48  interface_result_2.o(.data)
    block_Result_Arrow                       0x20001004   Data          48  interface_result_2.o(.data)
    block_Result_Left_arrow                  0x20001034   Data          48  interface_result_2.o(.data)
    UI_WindowBlocksAttrArray_Result_2        0x20001064   Data          20  interface_result_2.o(.data)
    UI_WindowBlocks_Insert_Cup               0x20001078   Data           2  interface_insert_cup.o(.data)
    block_Insert_Cup_Back                    0x2000107c   Data          32  interface_insert_cup.o(.data)
    block_Insert_Cup_Notice                  0x2000109c   Data          32  interface_insert_cup.o(.data)
    block_Insert_Cup_Please                  0x200010bc   Data          32  interface_insert_cup.o(.data)
    block_Insert_Cup_Cup                     0x200010dc   Data          32  interface_insert_cup.o(.data)
    UI_WindowBlocksAttrArray_Insert_Cup      0x200010fc   Data          16  interface_insert_cup.o(.data)
    Comm_RequestTX                           0x2000110c   Data           1  comm_fifo.o(.data)
    HSEStartUpStatus                         0x20001110   Data           1  hw_config.o(.data)
    EXTI_InitStructure                       0x20001114   Data           8  hw_config.o(.data)
    Virtual_Com_Port_StringSerial            0x2000111c   Data          38  usb_desc.o(.data)
    Framelen                                 0x2000114c   Data           2  usb_endp.o(.data)
    FramelenTx                               0x2000114e   Data           2  usb_endp.o(.data)
    bIntPackSOF                              0x20001154   Data           1  usb_istr.o(.data)
    esof_counter                             0x20001158   Data           4  usb_istr.o(.data)
    wCNTR                                    0x2000115c   Data           4  usb_istr.o(.data)
    pEpInt_IN                                0x20001160   Data          28  usb_istr.o(.data)
    pEpInt_OUT                               0x2000117c   Data          28  usb_istr.o(.data)
    wIstr                                    0x20001198   Data           2  usb_istr.o(.data)
    Request                                  0x2000119c   Data           1  usb_prop.o(.data)
    linecoding                               0x200011a0   Data           8  usb_prop.o(.data)
    Device_Table                             0x200011a8   Data           2  usb_prop.o(.data)
    Device_Property                          0x200011ac   Data          48  usb_prop.o(.data)
    User_Standard_Requests                   0x200011dc   Data          36  usb_prop.o(.data)
    Device_Descriptor                        0x20001200   Data           8  usb_prop.o(.data)
    Config_Descriptor                        0x20001208   Data           8  usb_prop.o(.data)
    String_Descriptor                        0x20001210   Data          32  usb_prop.o(.data)
    bDeviceState                             0x20001230   Data           4  usb_pwr.o(.data)
    fSuspendEnabled                          0x20001234   Data           1  usb_pwr.o(.data)
    remotewakeupon                           0x20001238   Data           4  usb_pwr.o(.data)
    ResumeS                                  0x2000123c   Data           2  usb_pwr.o(.data)
    HostComm_RecBufAvailable                 0x20001240   Data           1  hostcomm.o(.data)
    contReceive                              0x20001241   Data           1  hostcomm.o(.data)
    recCount                                 0x20001242   Data           2  hostcomm.o(.data)
    respLength                               0x20001244   Data           2  hostcomm.o(.data)
    keyMatched                               0x20001246   Data           1  hostcomm.o(.data)
    HostComm_RecBufSize                      0x20001248   Data           2  hostcomm.o(.data)
    cmdLength                                0x2000124a   Data           2  hostcomm.o(.data)
    cmdType                                  0x2000124c   Data           1  hostcomm.o(.data)
    cmdCode                                  0x2000124d   Data           1  hostcomm.o(.data)
    binFileAttr_Input                        0x20001250   Data           8  hostcomm.o(.data)
    Data_Mul_MaxPacketSize                   0x20001258   Data           1  usb_core.o(.data)
    StatusInfo                               0x2000125a   Data           2  usb_core.o(.data)
    EPindex                                  0x2000125c   Data           1  usb_init.o(.data)
    pInformation                             0x20001260   Data           4  usb_init.o(.data)
    pProperty                                0x20001264   Data           4  usb_init.o(.data)
    SaveState                                0x20001268   Data           2  usb_init.o(.data)
    wInterrupt_Mask                          0x2000126a   Data           2  usb_init.o(.data)
    pUser_Standard_Requests                  0x2000126c   Data           4  usb_init.o(.data)
    SaveRState                               0x20001270   Data           2  usb_int.o(.data)
    SaveTState                               0x20001272   Data           2  usb_int.o(.data)
    QRCode_Buffer                            0x20001274   Data         400  qrcode.o(.bss)
    SignalProcess_sampleBuffer               0x20001404   Data          20  signalprocess_sample.o(.bss)
    SignalProcess_sampleBuffer_BK            0x20001418   Data          20  signalprocess_sample.o(.bss)
    SignalProcess_outputBuffer               0x2000142c   Data          10  signalprocess_sample.o(.bss)
    RxDataFIFO                               0x20001436   Data        6005  comm_fifo.o(.bss)
    TxData                                   0x20002bac   Data        2002  comm_fifo.o(.bss)
    data                                     0x2000337e   Data        1024  usb_endp.o(.bss)
    Txdata                                   0x2000377e   Data        1024  usb_endp.o(.bss)
    EP                                       0x20003b80   Data          32  usb_pwr.o(.bss)
    recBuffer                                0x20003ba0   Data        3072  hostcomm.o(.bss)
    cmdBuffer                                0x200047a0   Data        2148  hostcomm.o(.bss)
    respBuffer                               0x20005004   Data         100  hostcomm.o(.bss)
    Device_Info                              0x20005068   Data          28  usb_init.o(.bss)
    __initial_sp                             0x20006088   Data           0  startup_stm32f10x_hd.o(STACK)



==============================================================================

Memory Map of the image

  Image Entry point : 0x08000131

  Load Region LR_IROM1 (Base: 0x08000000, Size: 0x0001b5dc, Max: 0x00080000, ABSOLUTE, COMPRESSED[0x0001a8fc])

    Execution Region ER_IROM1 (Base: 0x08000000, Size: 0x0001a36c, Max: 0x00080000, ABSOLUTE)

    Base Addr    Size         Type   Attr      Idx    E Section Name        Object

    0x08000000   0x00000130   Data   RO           19    RESET               startup_stm32f10x_hd.o
    0x08000130   0x00000000   Code   RO         5936  * .ARM.Collect$$$$00000000  mc_w.l(entry.o)
    0x08000130   0x00000004   Code   RO         6226    .ARM.Collect$$$$00000001  mc_w.l(entry2.o)
    0x08000134   0x00000004   Code   RO         6229    .ARM.Collect$$$$00000004  mc_w.l(entry5.o)
    0x08000138   0x00000000   Code   RO         6231    .ARM.Collect$$$$00000008  mc_w.l(entry7b.o)
    0x08000138   0x00000008   Code   RO         6232    .ARM.Collect$$$$00000009  mc_w.l(entry8.o)
    0x08000140   0x00000004   Code   RO         6227    .ARM.Collect$$$$00002712  mc_w.l(entry2.o)
    0x08000144   0x00000024   Code   RO           20    .text               startup_stm32f10x_hd.o
    0x08000168   0x00000024   Code   RO         5939    .text               mc_w.l(memcpya.o)
    0x0800018c   0x00000026   Code   RO         5941    .text               mc_w.l(memseta.o)
    0x080001b2   0x00000062   Code   RO         6238    .text               mc_w.l(uldiv.o)
    0x08000214   0x0000001e   Code   RO         6240    .text               mc_w.l(llshl.o)
    0x08000232   0x00000020   Code   RO         6242    .text               mc_w.l(llushr.o)
    0x08000252   0x00000002   PAD
    0x08000254   0x00000024   Code   RO         6253    .text               mc_w.l(init.o)
    0x08000278   0x0000005c   Code   RO         6265    .text               mc_w.l(__dczerorl2.o)
    0x080002d4   0x00000016   Code   RO          202    i.ADC_Cmd           stm32f10x_adc.o
    0x080002ea   0x00000014   Code   RO          210    i.ADC_GetCalibrationStatus  stm32f10x_adc.o
    0x080002fe   0x00000008   Code   RO          211    i.ADC_GetConversionValue  stm32f10x_adc.o
    0x08000306   0x00000012   Code   RO          213    i.ADC_GetFlagStatus  stm32f10x_adc.o
    0x08000318   0x00000014   Code   RO          216    i.ADC_GetResetCalibrationStatus  stm32f10x_adc.o
    0x0800032c   0x00000050   Code   RO          220    i.ADC_Init          stm32f10x_adc.o
    0x0800037c   0x000000b8   Code   RO          224    i.ADC_RegularChannelConfig  stm32f10x_adc.o
    0x08000434   0x0000000a   Code   RO          225    i.ADC_ResetCalibration  stm32f10x_adc.o
    0x0800043e   0x00000016   Code   RO          227    i.ADC_SoftwareStartConvCmd  stm32f10x_adc.o
    0x08000454   0x0000000a   Code   RO          229    i.ADC_StartCalibration  stm32f10x_adc.o
    0x0800045e   0x00000002   PAD
    0x08000460   0x00000084   Code   RO         3942    i.Acquisition_Signal  interface_testing.o
    0x080004e4   0x00000154   Code   RO         3643    i.Battery_Empty_ICO  interface_main.o
    0x08000638   0x0000005a   Code   RO         3397    i.BlockWrite        displaydriver.o
    0x08000692   0x00000032   Code   RO         3398    i.BlockWrite_Test   displaydriver.o
    0x080006c4   0x00000004   Code   RO         3192    i.BusFault_Handler  stm32f10x_it.o
    0x080006c8   0x0000000c   Code   RO         5552    i.ByteSwap          usb_regs.o
    0x080006d4   0x00000260   Code   RO         5505    i.CTR_LP            usb_int.o
    0x08000934   0x00000020   Code   RO         4173    i.Calc4BitsCRC      common.o
    0x08000954   0x0000002c   Code   RO         5553    i.ClearDTOG_RX      usb_regs.o
    0x08000980   0x0000002c   Code   RO         5554    i.ClearDTOG_TX      usb_regs.o
    0x080009ac   0x00000020   Code   RO         5559    i.Clear_Status_Out  usb_regs.o
    0x080009cc   0x00000044   Code   RO         4641    i.Comm_FIFO_Init    comm_fifo.o
    0x08000a10   0x0000005e   Code   RO         4643    i.Comm_FIFO_RxDataPut  comm_fifo.o
    0x08000a6e   0x00000034   Code   RO         4174    i.Common_CalculateCRC  common.o
    0x08000aa2   0x0000006e   Code   RO         4175    i.Common_EXTI_Init  common.o
    0x08000b10   0x000000c0   Code   RO         5335    i.DataStageIn       usb_core.o
    0x08000bd0   0x000000bc   Code   RO         5336    i.DataStageOut      usb_core.o
    0x08000c8c   0x0000028c   Code   RO         5337    i.Data_Setup0       usb_core.o
    0x08000f18   0x00000002   Code   RO         3193    i.DebugMon_Handler  stm32f10x_it.o
    0x08000f1a   0x00000016   Code   RO         3399    i.Delay             displaydriver.o
    0x08000f30   0x0000000a   Code   RO         3998    i.Delay_SW          scanmotordriver.o
    0x08000f3a   0x00000002   PAD
    0x08000f3c   0x00000014   Code   RO         3130    i.Delay_ms          main.o
    0x08000f50   0x00000016   Code   RO         3194    i.Delay_ms_SW       stm32f10x_it.o
    0x08000f66   0x00000014   Code   RO         3341    i.Delay_us          rotationmotor.o
    0x08000f7a   0x00000014   Code   RO         4297    i.Delay_us_SW       systemmanage_rtc.o
    0x08000f8e   0x000000ae   Code   RO         3535    i.DisplayDriver_DrawLine  font.o
    0x0800103c   0x0000005c   Code   RO         3400    i.DisplayDriver_DrawPic  displaydriver.o
    0x08001098   0x000001cc   Code   RO         3401    i.DisplayDriver_Init  displaydriver.o
    0x08001264   0x00000148   Code   RO         3536    i.DisplayDriver_Text16  font.o
    0x080013ac   0x0000018c   Code   RO         3537    i.DisplayDriver_Text16_B  font.o
    0x08001538   0x00000002   Code   RO         4811    i.EP1_IN_Callback   usb_endp.o
    0x0800153a   0x00000002   PAD
    0x0800153c   0x00000040   Code   RO         4812    i.EP3_OUT_Callback  usb_endp.o
    0x0800157c   0x00000002   Code   RO         3195    i.EXTI0_IRQHandler  stm32f10x_it.o
    0x0800157e   0x00000002   Code   RO         3196    i.EXTI15_10_IRQHandler  stm32f10x_it.o
    0x08001580   0x00000018   Code   RO         3197    i.EXTI1_IRQHandler  stm32f10x_it.o
    0x08001598   0x0000000e   Code   RO         3198    i.EXTI2_IRQHandler  stm32f10x_it.o
    0x080015a6   0x00000002   Code   RO         3199    i.EXTI3_IRQHandler  stm32f10x_it.o
    0x080015a8   0x00000030   Code   RO         3200    i.EXTI4_IRQHandler  stm32f10x_it.o
    0x080015d8   0x00000068   Code   RO         3201    i.EXTI9_5_IRQHandler  stm32f10x_it.o
    0x08001640   0x000000ae   Code   RO         3574    i.EXTIX_Init        humaninput.o
    0x080016ee   0x00000002   PAD
    0x080016f0   0x0000000c   Code   RO          961    i.EXTI_ClearITPendingBit  stm32f10x_exti.o
    0x080016fc   0x00000028   Code   RO          965    i.EXTI_GetITStatus  stm32f10x_exti.o
    0x08001724   0x00000094   Code   RO          966    i.EXTI_Init         stm32f10x_exti.o
    0x080017b8   0x00000028   Code   RO         3575    i.EXTI_Key_Confirm_Disable  humaninput.o
    0x080017e0   0x00000044   Code   RO         3576    i.EXTI_Key_Confirm_Enable  humaninput.o
    0x08001824   0x00000034   Code   RO         1199    i.FSMC_NORSRAMCmd   stm32f10x_fsmc.o
    0x08001858   0x000000e0   Code   RO         1201    i.FSMC_NORSRAMInit  stm32f10x_fsmc.o
    0x08001938   0x00000040   Code   RO         1311    i.GPIO_EXTILineConfig  stm32f10x_gpio.o
    0x08001978   0x00000112   Code   RO         1314    i.GPIO_Init         stm32f10x_gpio.o
    0x08001a8a   0x00000002   PAD
    0x08001a8c   0x00000090   Code   RO         1316    i.GPIO_PinRemapConfig  stm32f10x_gpio.o
    0x08001b1c   0x00000012   Code   RO         1318    i.GPIO_ReadInputDataBit  stm32f10x_gpio.o
    0x08001b2e   0x00000004   Code   RO         1321    i.GPIO_ResetBits    stm32f10x_gpio.o
    0x08001b32   0x00000004   Code   RO         1322    i.GPIO_SetBits      stm32f10x_gpio.o
    0x08001b36   0x0000000a   Code   RO         1325    i.GPIO_WriteBit     stm32f10x_gpio.o
    0x08001b40   0x00000020   Code   RO         5571    i.GetEPRxAddr       usb_regs.o
    0x08001b60   0x00000024   Code   RO         5572    i.GetEPRxCount      usb_regs.o
    0x08001b84   0x00000020   Code   RO         5574    i.GetEPTxAddr       usb_regs.o
    0x08001ba4   0x00000034   Code   RO         4685    i.Get_SerialNum     hw_config.o
    0x08001bd8   0x000000d8   Code   RO         3943    i.Get_Start_Postion  interface_testing.o
    0x08001cb0   0x00000040   Code   RO         3944    i.Get_sampleBuffer_Max_Value  interface_testing.o
    0x08001cf0   0x00000004   Code   RO         3202    i.HardFault_Handler  stm32f10x_it.o
    0x08001cf4   0x0000004c   Code   RO         5139    i.HostComm_Config   hostcomm.o
    0x08001d40   0x00000014   Code   RO         5140    i.HostComm_Init     hostcomm.o
    0x08001d54   0x00000020   Code   RO         5141    i.HostComm_NVIC_Configuration  hostcomm.o
    0x08001d74   0x00000044   Code   RO         3577    i.HumanInput_Init   humaninput.o
    0x08001db8   0x00000040   Code   RO         4298    i.I2C_Ack           systemmanage_rtc.o
    0x08001df8   0x00000040   Code   RO         4299    i.I2C_NoAck         systemmanage_rtc.o
    0x08001e38   0x00000054   Code   RO         4300    i.IIC_ReadByte      systemmanage_rtc.o
    0x08001e8c   0x0000003c   Code   RO         4301    i.IIC_Start         systemmanage_rtc.o
    0x08001ec8   0x00000040   Code   RO         4302    i.IIC_Stop          systemmanage_rtc.o
    0x08001f08   0x00000054   Code   RO         4303    i.IIC_WaitAck       systemmanage_rtc.o
    0x08001f5c   0x00000064   Code   RO         4304    i.IIC_WriteByte     systemmanage_rtc.o
    0x08001fc0   0x00000070   Code   RO         5338    i.In0_Process       usb_core.o
    0x08002030   0x0000003e   Code   RO         4686    i.IntToUnicode      hw_config.o
    0x0800206e   0x00000002   PAD
    0x08002070   0x0000004c   Code   RO         4610    i.Interface_Insert_Cup  interface_insert_cup.o
    0x080020bc   0x00000114   Code   RO         3644    i.Interface_Key_Event  interface_main.o
    0x080021d0   0x0000003c   Code   RO         3645    i.Interface_Main    interface_main.o
    0x0800220c   0x00000044   Code   RO         3646    i.Interface_Main_font  interface_main.o
    0x08002250   0x00000034   Code   RO         3647    i.Interface_Process  interface_main.o
    0x08002284   0x0000007c   Code   RO         3762    i.Interface_Quick   interface_quick.o
    0x08002300   0x00000038   Code   RO         3763    i.Interface_Quick_font  interface_quick.o
    0x08002338   0x00000054   Code   RO         3816    i.Interface_Record  interface_record.o
    0x0800238c   0x00000060   Code   RO         3879    i.Interface_Result  interface_result.o
    0x080023ec   0x00000054   Code   RO         4578    i.Interface_Result_2  interface_result_2.o
    0x08002440   0x00000054   Code   RO         3847    i.Interface_Setting  interface_setting.o
    0x08002494   0x00000048   Code   RO         3726    i.Interface_Standard  interface_standard.o
    0x080024dc   0x00000050   Code   RO         3911    i.Interface_Start   interface_start.o
    0x0800252c   0x00000064   Code   RO         3945    i.Interface_Testing  interface_testing.o
    0x08002590   0x0000005c   Code   RO         3578    i.Key_Confirm       humaninput.o
    0x080025ec   0x0000007c   Code   RO         3579    i.Key_Left          humaninput.o
    0x08002668   0x00000064   Code   RO         3580    i.Key_Right         humaninput.o
    0x080026cc   0x0000005c   Code   RO         3403    i.LCD_FSMC_Config   displaydriver.o
    0x08002728   0x000000d4   Code   RO         3404    i.LCD_GPIO_Config   displaydriver.o
    0x080027fc   0x0000002c   Code   RO         3405    i.LCD_Rst           displaydriver.o
    0x08002828   0x00000048   Code   RO         3407    i.Lcd_ColorBox      displaydriver.o
    0x08002870   0x00000020   Code   RO         3408    i.Lcd_ColorSpot     displaydriver.o
    0x08002890   0x00000020   Code   RO         4687    i.Leave_LowPowerMode  hw_config.o
    0x080028b0   0x00000004   Code   RO         3203    i.MemManage_Handler  stm32f10x_it.o
    0x080028b4   0x00000002   Code   RO         3204    i.NMI_Handler       stm32f10x_it.o
    0x080028b6   0x00000002   Code   RO         5339    i.NOP_Process       usb_core.o
    0x080028b8   0x00000074   Code   RO          137    i.NVIC_Init         misc.o
    0x0800292c   0x00000014   Code   RO          138    i.NVIC_PriorityGroupConfig  misc.o
    0x08002940   0x00000134   Code   RO         5340    i.NoData_Setup0     usb_core.o
    0x08002a74   0x00000050   Code   RO         5341    i.Out0_Process      usb_core.o
    0x08002ac4   0x0000003c   Code   RO         4305    i.PCF8563_Init      systemmanage_rtc.o
    0x08002b00   0x00000138   Code   RO         4307    i.PCF8563_Read      systemmanage_rtc.o
    0x08002c38   0x00000024   Code   RO         5534    i.PMAToUserBufferCopy  usb_mem.o
    0x08002c5c   0x00000002   Code   RO         3205    i.PVD_IRQHandler    stm32f10x_it.o
    0x08002c5e   0x00000002   Code   RO         3206    i.PendSV_Handler    stm32f10x_it.o
    0x08002c60   0x00000048   Code   RO         5342    i.Post0_Process     usb_core.o
    0x08002ca8   0x00000040   Code   RO         5008    i.PowerOn           usb_pwr.o
    0x08002ce8   0x00000028   Code   RO         4212    i.QRCode_GPIO_Init  qrcode.o
    0x08002d10   0x0000000c   Code   RO         4214    i.QRCode_Init       qrcode.o
    0x08002d1c   0x00000010   Code   RO         4217    i.QRCode_Trigger_Disabled  qrcode.o
    0x08002d2c   0x00000010   Code   RO         4218    i.QRCode_Trigger_Enabled  qrcode.o
    0x08002d3c   0x0000004c   Code   RO         4219    i.QRCode_Uart_Config  qrcode.o
    0x08002d88   0x0000003c   Code   RO         4220    i.QRCode_Uart_GPIO_Init  qrcode.o
    0x08002dc4   0x00000018   Code   RO         4221    i.QRCode_Uart_Init  qrcode.o
    0x08002ddc   0x00000022   Code   RO         4222    i.QRCode_Uart_NVIC_Configuration  qrcode.o
    0x08002dfe   0x00000002   PAD
    0x08002e00   0x00000020   Code   RO         1729    i.RCC_AHBPeriphClockCmd  stm32f10x_rcc.o
    0x08002e20   0x00000020   Code   RO         1730    i.RCC_APB1PeriphClockCmd  stm32f10x_rcc.o
    0x08002e40   0x00000020   Code   RO         1732    i.RCC_APB2PeriphClockCmd  stm32f10x_rcc.o
    0x08002e60   0x00000020   Code   RO         3411    i.RCC_Configuration  displaydriver.o
    0x08002e80   0x000000d4   Code   RO         1740    i.RCC_GetClocksFreq  stm32f10x_rcc.o
    0x08002f54   0x0000000c   Code   RO         1758    i.RCC_USBCLKConfig  stm32f10x_rcc.o
    0x08002f60   0x000000d0   Code   RO         5009    i.Resume            usb_pwr.o
    0x08003030   0x00000024   Code   RO         5010    i.Resume_Init       usb_pwr.o
    0x08003054   0x00000050   Code   RO         3342    i.RotaMotorDriver_GPIO_Init  rotationmotor.o
    0x080030a4   0x00000064   Code   RO         4149    i.RotaMotorDriver_PositionSensor_Init  rotationmotordriver_positionsensor.o
    0x08003108   0x00000020   Code   RO         4150    i.RotaMotorDriver_PositionSensor_Int_Disable  rotationmotordriver_positionsensor.o
    0x08003128   0x0000000c   Code   RO         3343    i.RotationMotor_Init  rotationmotor.o
    0x08003134   0x0000002c   Code   RO         3344    i.RotationMotor_Input_StepDrive  rotationmotor.o
    0x08003160   0x000000c4   Code   RO         3345    i.RotationMotor_PIN  rotationmotor.o
    0x08003224   0x00000040   Code   RO         3346    i.RotationMotor_SelfCheck_StepDrive  rotationmotor.o
    0x08003264   0x00000020   Code   RO         3347    i.RotationMotor_StepDrive_Min  rotationmotor.o
    0x08003284   0x000000c0   Code   RO         4813    i.SOF_Callback      usb_endp.o
    0x08003344   0x00000018   Code   RO         2209    i.SPI_Cmd           stm32f10x_spi.o
    0x0800335c   0x00000012   Code   RO         2217    i.SPI_I2S_GetFlagStatus  stm32f10x_spi.o
    0x0800336e   0x00000004   Code   RO         2221    i.SPI_I2S_SendData  stm32f10x_spi.o
    0x08003372   0x0000003c   Code   RO         2222    i.SPI_Init          stm32f10x_spi.o
    0x080033ae   0x00000002   Code   RO         3207    i.SVC_Handler       stm32f10x_it.o
    0x080033b0   0x0000002c   Code   RO         3999    i.ScanMotorDriver_A1  scanmotordriver.o
    0x080033dc   0x0000002c   Code   RO         4000    i.ScanMotorDriver_A2  scanmotordriver.o
    0x08003408   0x0000002c   Code   RO         4001    i.ScanMotorDriver_B1  scanmotordriver.o
    0x08003434   0x0000002c   Code   RO         4002    i.ScanMotorDriver_B2  scanmotordriver.o
    0x08003460   0x00000020   Code   RO         4003    i.ScanMotorDriver_Control  scanmotordriver.o
    0x08003480   0x00000098   Code   RO         4004    i.ScanMotorDriver_GPIO_Init  scanmotordriver.o
    0x08003518   0x0000002c   Code   RO         4005    i.ScanMotorDriver_Goto_BasePosition  scanmotordriver.o
    0x08003544   0x00000014   Code   RO         4006    i.ScanMotorDriver_Goto_CentrePosition  scanmotordriver.o
    0x08003558   0x00000014   Code   RO         4007    i.ScanMotorDriver_Goto_DetectionPosition  scanmotordriver.o
    0x0800356c   0x0000000c   Code   RO         4008    i.ScanMotorDriver_Init  scanmotordriver.o
    0x08003578   0x00000048   Code   RO         4009    i.ScanMotorDriver_Move  scanmotordriver.o
    0x080035c0   0x0000008e   Code   RO         4010    i.ScanMotorDriver_MoveOneStep  scanmotordriver.o
    0x0800364e   0x00000002   PAD
    0x08003650   0x00000064   Code   RO         4125    i.ScanMotorDriver_PositionSensor_Init  scanmotordriver_positionsensor.o
    0x080036b4   0x00000020   Code   RO         4126    i.ScanMotorDriver_PositionSensor_Int_Disable  scanmotordriver_positionsensor.o
    0x080036d4   0x00000020   Code   RO         4127    i.ScanMotorDriver_PositionSensor_Int_Enable  scanmotordriver_positionsensor.o
    0x080036f4   0x00000040   Code   RO         4012    i.ScanMotorDriver_SelfCheck_StepDrive  scanmotordriver.o
    0x08003734   0x00000010   Code   RO         5582    i.SetBTABLE         usb_regs.o
    0x08003744   0x00000048   Code   RO         5343    i.SetDeviceAddress  usb_core.o
    0x0800378c   0x00000024   Code   RO         5596    i.SetEPRxAddr       usb_regs.o
    0x080037b0   0x0000004c   Code   RO         5597    i.SetEPRxCount      usb_regs.o
    0x080037fc   0x0000003c   Code   RO         5598    i.SetEPRxStatus     usb_regs.o
    0x08003838   0x0000002c   Code   RO         5599    i.SetEPRxValid      usb_regs.o
    0x08003864   0x00000020   Code   RO         5600    i.SetEPTxAddr       usb_regs.o
    0x08003884   0x0000001c   Code   RO         5601    i.SetEPTxCount      usb_regs.o
    0x080038a0   0x0000003c   Code   RO         5602    i.SetEPTxStatus     usb_regs.o
    0x080038dc   0x0000002c   Code   RO         5603    i.SetEPTxValid      usb_regs.o
    0x08003908   0x0000001c   Code   RO         5604    i.SetEPType         usb_regs.o
    0x08003924   0x00000008   Code   RO           24    i.SetSysClock       system_stm32f10x.o
    0x0800392c   0x000000c8   Code   RO           25    i.SetSysClockTo72   system_stm32f10x.o
    0x080039f4   0x00000050   Code   RO         4688    i.Set_System        hw_config.o
    0x08003a44   0x00000012   Code   RO         4689    i.Set_USBClock      hw_config.o
    0x08003a56   0x00000002   PAD
    0x08003a58   0x000000b8   Code   RO         5344    i.Setup0_Process    usb_core.o
    0x08003b10   0x00000010   Code   RO         4400    i.SignalProcess_Collecting_Data  signalprocess_sample.o
    0x08003b20   0x0000003a   Code   RO         3946    i.SignalSample_Moving_Average_Data  interface_testing.o
    0x08003b5a   0x00000002   Code   RO         4403    i.SignalSample_OutputSamples  signalprocess_sample.o
    0x08003b5c   0x000000ac   Code   RO         4406    i.SignalSample_SampleStrip  signalprocess_sample.o
    0x08003c08   0x0000009c   Code   RO         4407    i.SignalSample_Sample_AD84XX_Init  signalprocess_sample.o
    0x08003ca4   0x00000020   Code   RO         4408    i.SignalSample_Sample_AD84XX_SendByte  signalprocess_sample.o
    0x08003cc4   0x00000094   Code   RO         4409    i.SignalSample_Sample_ADC_Init  signalprocess_sample.o
    0x08003d58   0x0000001c   Code   RO         4410    i.SignalSample_Sample_EnterCriticalArea  signalprocess_sample.o
    0x08003d74   0x0000000a   Code   RO         4411    i.SignalSample_Sample_ExitCriticalArea  signalprocess_sample.o
    0x08003d7e   0x0000001c   Code   RO         4412    i.SignalSample_Sample_Init  signalprocess_sample.o
    0x08003d9a   0x00000002   PAD
    0x08003d9c   0x00000028   Code   RO         4414    i.SignalSample_Sample_LED_Init  signalprocess_sample.o
    0x08003dc4   0x0000005c   Code   RO         4415    i.SignalSample_Sample_Sampling  signalprocess_sample.o
    0x08003e20   0x00000014   Code   RO         4416    i.SignalSample_Sample_SetResistor  signalprocess_sample.o
    0x08003e34   0x00000020   Code   RO         4417    i.SignalSample_Sample_Set_LED  signalprocess_sample.o
    0x08003e54   0x00000018   Code   RO         4418    i.SignalSample_Sample_Start  signalprocess_sample.o
    0x08003e6c   0x00000014   Code   RO         4419    i.SignalSample_Sample_Stop  signalprocess_sample.o
    0x08003e80   0x00000030   Code   RO         4420    i.SignalSample_Sample_Strip_Sensor_Init  signalprocess_sample.o
    0x08003eb0   0x00000018   Code   RO         4422    i.SignalSample_Sample_Timer_Disabled  signalprocess_sample.o
    0x08003ec8   0x0000005c   Code   RO         4423    i.SignalSample_Sample_Timer_Init  signalprocess_sample.o
    0x08003f24   0x00000014   Code   RO         4424    i.SignalSample_Sample_Timer_Int  signalprocess_sample.o
    0x08003f38   0x00000034   Code   RO         4426    i.SignalSample_SetResistor  signalprocess_sample.o
    0x08003f6c   0x00000150   Code   RO         5345    i.Standard_ClearFeature  usb_core.o
    0x080040bc   0x0000002c   Code   RO         5346    i.Standard_GetConfiguration  usb_core.o
    0x080040e8   0x00000024   Code   RO         5347    i.Standard_GetDescriptorData  usb_core.o
    0x0800410c   0x0000002c   Code   RO         5348    i.Standard_GetInterface  usb_core.o
    0x08004138   0x000000f8   Code   RO         5349    i.Standard_GetStatus  usb_core.o
    0x08004230   0x00000048   Code   RO         5350    i.Standard_SetConfiguration  usb_core.o
    0x08004278   0x00000028   Code   RO         5351    i.Standard_SetDeviceFeature  usb_core.o
    0x080042a0   0x000000bc   Code   RO         5352    i.Standard_SetEndPointFeature  usb_core.o
    0x0800435c   0x0000006c   Code   RO         5353    i.Standard_SetInterface  usb_core.o
    0x080043c8   0x0000005c   Code   RO         3131    i.Status_Init       main.o
    0x08004424   0x000000f0   Code   RO         5011    i.Suspend           usb_pwr.o
    0x08004514   0x000000c0   Code   RO         3208    i.SysTick_Handler   stm32f10x_it.o
    0x080045d4   0x0000005c   Code   RO         3132    i.SysTick_Init      main.o
    0x08004630   0x00000060   Code   RO           27    i.SystemInit        system_stm32f10x.o
    0x08004690   0x00000010   Code   RO         4014    i.SystemManage_5V_Disabled  scanmotordriver.o
    0x080046a0   0x00000010   Code   RO         4015    i.SystemManage_5V_Enabled  scanmotordriver.o
    0x080046b0   0x0000001c   Code   RO         3581    i.SystemManage_CheckPowerOff  humaninput.o
    0x080046cc   0x000000b0   Code   RO         4814    i.TIM2_IRQHandler   usb_endp.o
    0x0800477c   0x0000002c   Code   RO         3209    i.TIM3_IRQHandler   stm32f10x_it.o
    0x080047a8   0x00000002   Code   RO         3210    i.TIM4_IRQHandler   stm32f10x_it.o
    0x080047aa   0x00000002   Code   RO         3211    i.TIM7_IRQHandler   stm32f10x_it.o
    0x080047ac   0x00000006   Code   RO         2359    i.TIM_ClearITPendingBit  stm32f10x_tim.o
    0x080047b2   0x00000018   Code   RO         2364    i.TIM_Cmd           stm32f10x_tim.o
    0x080047ca   0x00000022   Code   RO         2385    i.TIM_GetITStatus   stm32f10x_tim.o
    0x080047ec   0x00000018   Code   RO         2389    i.TIM_ITConfig      stm32f10x_tim.o
    0x08004804   0x000000a4   Code   RO         2435    i.TIM_TimeBaseInit  stm32f10x_tim.o
    0x080048a8   0x00000008   Code   RO         4815    i.TimeOut_Reload    usb_endp.o
    0x080048b0   0x00000018   Code   RO         3133    i.TimingDelay_Decrement  main.o
    0x080048c8   0x00000068   Code   RO         3648    i.UI_Draw_Block     interface_main.o
    0x08004930   0x00000048   Code   RO         4611    i.UI_Draw_Block_Insert_Cup  interface_insert_cup.o
    0x08004978   0x00000060   Code   RO         3764    i.UI_Draw_Block_Quick  interface_quick.o
    0x080049d8   0x00000048   Code   RO         3765    i.UI_Draw_Block_Quick_Font  interface_quick.o
    0x08004a20   0x00000054   Code   RO         3817    i.UI_Draw_Block_Record  interface_record.o
    0x08004a74   0x00000054   Code   RO         3848    i.UI_Draw_Block_Setting  interface_setting.o
    0x08004ac8   0x00000048   Code   RO         3727    i.UI_Draw_Block_Standard  interface_standard.o
    0x08004b10   0x000000f0   Code   RO         3649    i.UI_Draw_Block_font  interface_main.o
    0x08004c00   0x00000050   Code   RO         3650    i.UI_Draw_Status_Bar  interface_main.o
    0x08004c50   0x00000024   Code   RO         3651    i.UI_Draw_Window    interface_main.o
    0x08004c74   0x00000024   Code   RO         4612    i.UI_Draw_Window_Insert_Cup  interface_insert_cup.o
    0x08004c98   0x00000024   Code   RO         3766    i.UI_Draw_Window_Quick  interface_quick.o
    0x08004cbc   0x00000024   Code   RO         3767    i.UI_Draw_Window_Quick_font  interface_quick.o
    0x08004ce0   0x0000002c   Code   RO         3818    i.UI_Draw_Window_Record  interface_record.o
    0x08004d0c   0x00000024   Code   RO         3880    i.UI_Draw_Window_Result  interface_result.o
    0x08004d30   0x00000024   Code   RO         4579    i.UI_Draw_Window_Result_2  interface_result_2.o
    0x08004d54   0x0000002c   Code   RO         3849    i.UI_Draw_Window_Setting  interface_setting.o
    0x08004d80   0x0000004c   Code   RO         3728    i.UI_Draw_Window_Standard  interface_standard.o
    0x08004dcc   0x00000054   Code   RO         3912    i.UI_Draw_Window_Start  interface_start.o
    0x08004e20   0x00000024   Code   RO         3947    i.UI_Draw_Window_Testing  interface_testing.o
    0x08004e44   0x0000002c   Code   RO         3652    i.UI_Draw_Window_font  interface_main.o
    0x08004e70   0x00000060   Code   RO         3881    i.UI_Draw_block_Result  interface_result.o
    0x08004ed0   0x00000060   Code   RO         4580    i.UI_Draw_block_Result_2  interface_result_2.o
    0x08004f30   0x00000048   Code   RO         3913    i.UI_Draw_block_Start  interface_start.o
    0x08004f78   0x00000048   Code   RO         3948    i.UI_Draw_block_Testing  interface_testing.o
    0x08004fc0   0x00000058   Code   RO         4223    i.USART1_IRQHandler  qrcode.o
    0x08005018   0x000000dc   Code   RO         5152    i.USART2_IRQHandler  hostcomm.o
    0x080050f4   0x00000012   Code   RO         2896    i.USART_ClearFlag   stm32f10x_usart.o
    0x08005106   0x0000001e   Code   RO         2897    i.USART_ClearITPendingBit  stm32f10x_usart.o
    0x08005124   0x00000018   Code   RO         2900    i.USART_Cmd         stm32f10x_usart.o
    0x0800513c   0x00000054   Code   RO         2904    i.USART_GetITStatus  stm32f10x_usart.o
    0x08005190   0x0000004a   Code   RO         2906    i.USART_ITConfig    stm32f10x_usart.o
    0x080051da   0x00000002   PAD
    0x080051dc   0x000000d8   Code   RO         2907    i.USART_Init        stm32f10x_usart.o
    0x080052b4   0x0000000a   Code   RO         2914    i.USART_ReceiveData  stm32f10x_usart.o
    0x080052be   0x0000000c   Code   RO         4882    i.USBWakeUp_IRQHandler  usb_it.o
    0x080052ca   0x00000002   PAD
    0x080052cc   0x00000098   Code   RO         5086    i.USB_BasicInit     usb.o
    0x08005364   0x00000024   Code   RO         4690    i.USB_Cable_Config  hw_config.o
    0x08005388   0x00000014   Code   RO         4691    i.USB_Config        hw_config.o
    0x0800539c   0x0000003c   Code   RO         5481    i.USB_Init          usb_init.o
    0x080053d8   0x00000022   Code   RO         4692    i.USB_Interrupts_Config  hw_config.o
    0x080053fa   0x00000002   PAD
    0x080053fc   0x000001c0   Code   RO         4864    i.USB_Istr          usb_istr.o
    0x080055bc   0x00000008   Code   RO         4883    i.USB_LP_CAN1_RX0_IRQHandler  usb_it.o
    0x080055c4   0x00000024   Code   RO         5912    i.USB_SIL_Init      usb_sil.o
    0x080055e8   0x0000002e   Code   RO         5913    i.USB_SIL_Read      usb_sil.o
    0x08005616   0x00000002   PAD
    0x08005618   0x00000018   Code   RO         5087    i.USB_VirtualCOM_Init  usb.o
    0x08005630   0x00000004   Code   RO         3212    i.UsageFault_Handler  stm32f10x_it.o
    0x08005634   0x00000038   Code   RO         5535    i.UserToPMABufferCopy  usb_mem.o
    0x0800566c   0x00000064   Code   RO         4906    i.Virtual_Com_Port_Data_Setup  usb_prop.o
    0x080056d0   0x00000014   Code   RO         4907    i.Virtual_Com_Port_GetConfigDescriptor  usb_prop.o
    0x080056e4   0x00000014   Code   RO         4908    i.Virtual_Com_Port_GetDeviceDescriptor  usb_prop.o
    0x080056f8   0x0000001c   Code   RO         4909    i.Virtual_Com_Port_GetLineCoding  usb_prop.o
    0x08005714   0x00000028   Code   RO         4910    i.Virtual_Com_Port_GetStringDescriptor  usb_prop.o
    0x0800573c   0x00000016   Code   RO         4911    i.Virtual_Com_Port_Get_Interface_Setting  usb_prop.o
    0x08005752   0x00000002   PAD
    0x08005754   0x00000028   Code   RO         4912    i.Virtual_Com_Port_NoData_Setup  usb_prop.o
    0x0800577c   0x000000e8   Code   RO         4913    i.Virtual_Com_Port_Reset  usb_prop.o
    0x08005864   0x00000018   Code   RO         4914    i.Virtual_Com_Port_SetConfiguration  usb_prop.o
    0x0800587c   0x0000000c   Code   RO         4915    i.Virtual_Com_Port_SetDeviceAddress  usb_prop.o
    0x08005888   0x0000001c   Code   RO         4916    i.Virtual_Com_Port_SetLineCoding  usb_prop.o
    0x080058a4   0x00000014   Code   RO         4917    i.Virtual_Com_Port_Status_In  usb_prop.o
    0x080058b8   0x00000002   Code   RO         4918    i.Virtual_Com_Port_Status_Out  usb_prop.o
    0x080058ba   0x00000002   PAD
    0x080058bc   0x00000028   Code   RO         4919    i.Virtual_Com_Port_init  usb_prop.o
    0x080058e4   0x00000008   Code   RO         3413    i.WriteComm         displaydriver.o
    0x080058ec   0x0000000c   Code   RO         3414    i.WriteData         displaydriver.o
    0x080058f8   0x00000028   Code   RO         6154    i.__0sprintf$8      mc_w.l(printf8.o)
    0x08005920   0x0000000e   Code   RO         6259    i.__scatterload_copy  mc_w.l(handlers.o)
    0x0800592e   0x00000002   Code   RO         6260    i.__scatterload_null  mc_w.l(handlers.o)
    0x08005930   0x0000000e   Code   RO         6261    i.__scatterload_zeroinit  mc_w.l(handlers.o)
    0x0800593e   0x00000002   PAD
    0x08005940   0x00000420   Code   RO         6159    i._printf_core      mc_w.l(printf8.o)
    0x08005d60   0x00000026   Code   RO         6160    i._printf_post_padding  mc_w.l(printf8.o)
    0x08005d86   0x00000030   Code   RO         6161    i._printf_pre_padding  mc_w.l(printf8.o)
    0x08005db6   0x0000000a   Code   RO         6163    i._sputc            mc_w.l(printf8.o)
    0x08005dc0   0x00000044   Code   RO         3134    i.main              main.o
    0x08005e04   0x00003bd2   Data   RO         3521    .constdata          displaydriver_fontlib.o
    0x080099d6   0x00000002   PAD
    0x080099d8   0x00010754   Data   RO         3653    .constdata          interface_main.o
    0x0801a12c   0x00000020   Data   RO         4177    .constdata          common.o
    0x0801a14c   0x00000097   Data   RO         4798    .constdata          usb_desc.o
    0x0801a1e3   0x0000001e   Data   RO         3654    .conststring        interface_main.o
    0x0801a201   0x00000057   Data   RO         3729    .conststring        interface_standard.o
    0x0801a258   0x0000002f   Data   RO         3768    .conststring        interface_quick.o
    0x0801a287   0x00000014   Data   RO         3819    .conststring        interface_record.o
    0x0801a29b   0x0000001a   Data   RO         3850    .conststring        interface_setting.o
    0x0801a2b5   0x0000003c   Data   RO         3882    .conststring        interface_result.o
    0x0801a2f1   0x0000000b   Data   RO         3949    .conststring        interface_testing.o
    0x0801a2fc   0x00000036   Data   RO         4581    .conststring        interface_result_2.o
    0x0801a332   0x00000017   Data   RO         4613    .conststring        interface_insert_cup.o
    0x0801a349   0x00000003   PAD
    0x0801a34c   0x00000020   Data   RO         6257    Region$$Table       anon$$obj.o


    Execution Region RW_IRAM1 (Base: 0x20000004, Size: 0x00006084, Max: 0x0000fffc, ABSOLUTE, COMPRESSED[0x00000590])

    Base Addr    Size         Type   Attr      Idx    E Section Name        Object

    0x20000004   0x00000014   Data   RW         1760    .data               stm32f10x_rcc.o
    0x20000018   0x00000008   Data   RW         3135    .data               main.o
    0x20000020   0x00000018   Data   RW         3214    .data               stm32f10x_it.o
    0x20000038   0x00000026   Data   RW         3348    .data               rotationmotor.o
    0x2000005e   0x00000005   Data   RW         3582    .data               humaninput.o
    0x20000063   0x00000001   PAD
    0x20000064   0x00000158   Data   RW         3655    .data               interface_main.o
    0x200001bc   0x000003f4   Data   RW         3730    .data               interface_standard.o
    0x200005b0   0x00000174   Data   RW         3769    .data               interface_quick.o
    0x20000724   0x00000184   Data   RW         3820    .data               interface_record.o
    0x200008a8   0x000000a0   Data   RW         3851    .data               interface_setting.o
    0x20000948   0x000001a8   Data   RW         3883    .data               interface_result.o
    0x20000af0   0x000003ac   Data   RW         3915    .data               interface_start.o
    0x20000e9c   0x0000004c   Data   RW         3950    .data               interface_testing.o
    0x20000ee8   0x00000009   Data   RW         4016    .data               scanmotordriver.o
    0x20000ef1   0x00000001   PAD
    0x20000ef2   0x00000004   Data   RW         4225    .data               qrcode.o
    0x20000ef6   0x00000010   Data   RW         4312    .data               systemmanage_rtc.o
    0x20000f06   0x0000000a   Data   RW         4428    .data               signalprocess_sample.o
    0x20000f10   0x00000168   Data   RW         4582    .data               interface_result_2.o
    0x20001078   0x00000094   Data   RW         4614    .data               interface_insert_cup.o
    0x2000110c   0x00000001   Data   RW         4647    .data               comm_fifo.o
    0x2000110d   0x00000003   PAD
    0x20001110   0x0000000c   Data   RW         4694    .data               hw_config.o
    0x2000111c   0x00000026   Data   RW         4799    .data               usb_desc.o
    0x20001142   0x00000002   PAD
    0x20001144   0x0000000e   Data   RW         4817    .data               usb_endp.o
    0x20001152   0x00000002   PAD
    0x20001154   0x00000046   Data   RW         4865    .data               usb_istr.o
    0x2000119a   0x00000002   PAD
    0x2000119c   0x00000094   Data   RW         4920    .data               usb_prop.o
    0x20001230   0x0000000e   Data   RW         5013    .data               usb_pwr.o
    0x2000123e   0x00000002   PAD
    0x20001240   0x00000018   Data   RW         5155    .data               hostcomm.o
    0x20001258   0x00000004   Data   RW         5354    .data               usb_core.o
    0x2000125c   0x00000014   Data   RW         5483    .data               usb_init.o
    0x20001270   0x00000004   Data   RW         5506    .data               usb_int.o
    0x20001274   0x00000190   Zero   RW         4224    .bss                qrcode.o
    0x20001404   0x00000032   Zero   RW         4427    .bss                signalprocess_sample.o
    0x20001436   0x00001f48   Zero   RW         4646    .bss                comm_fifo.o
    0x2000337e   0x00000800   Zero   RW         4816    .bss                usb_endp.o
    0x20003b7e   0x00000002   PAD
    0x20003b80   0x00000020   Zero   RW         5012    .bss                usb_pwr.o
    0x20003ba0   0x000014c8   Zero   RW         5154    .bss                hostcomm.o
    0x20005068   0x0000001c   Zero   RW         5482    .bss                usb_init.o
    0x20005084   0x00000004   PAD
    0x20005088   0x00001000   Zero   RW           17    STACK               startup_stm32f10x_hd.o


==============================================================================

Image component sizes


      Code (inc. data)   RO Data    RW Data    ZI Data      Debug   Object Name

       162          0          0          1       8008       2194   comm_fifo.o
       194          6         32          0          0       2900   common.o
         0          0          0          0          0       4192   core_cm3.o
      1218         50          0          0          0       8669   displaydriver.o
         0          0      15314          0          0       1947   displaydriver_fontlib.o
       898         16          0          0          0       3369   font.o
       348         40          0         24       5320       5764   hostcomm.o
       694         78          0          5          0       4327   humaninput.o
       334         36          0         12          0       7936   hw_config.o
       184         36         23        148          0       3014   interface_insert_cup.o
      1300        128      67442        344          0      10644   interface_main.o
       420         72         47        372          0       5178   interface_quick.o
       212         36         20        388          0       3143   interface_record.o
       228         46         60        424          0       3383   interface_result.o
       216         40         54        360          0       3303   interface_result_2.o
       212         36         26        160          0       3078   interface_setting.o
       220         34         87       1012          0       5555   interface_standard.o
       236         40          0        940          0       3314   interface_start.o
       678         58         11         76          0       5850   interface_testing.o
       296         38          0          8          0      17504   main.o
       136         24          0          0          0     217243   misc.o
       366         48          0          4        400       5017   qrcode.o
       448         30          0         38          0       4480   rotationmotor.o
       132          4          0          0          0       1251   rotationmotordriver_positionsensor.o
       776         78          0          9          0       8709   scanmotordriver.o
       164          4          0          0          0       1783   scanmotordriver_positionsensor.o
      1056        100          0         10         50      13084   signalprocess_sample.o
        36          8        304          0       4096        756   startup_stm32f10x_hd.o
       394         10          0          0          0       7365   stm32f10x_adc.o
       200         18          0          0          0       1860   stm32f10x_exti.o
       276          6          0          0          0       1629   stm32f10x_fsmc.o
       518         10          0          0          0       5196   stm32f10x_gpio.o
       484         56          0         24          0       9908   stm32f10x_it.o
       320         44          0         20          0       5105   stm32f10x_rcc.o
       106          0          0          0          0       2984   stm32f10x_spi.o
       252         42          0          0          0       3210   stm32f10x_tim.o
       456          6          0          0          0       5698   stm32f10x_usart.o
       304         26          0          0          0      60857   system_stm32f10x.o
       912         38          0         16          0       6793   systemmanage_rtc.o
       176         12          0          0          0       1038   usb.o
      2978        284          0          4          0      15371   usb_core.o
         0          0        151         38          0        939   usb_desc.o
       442         50          0         14       2048       3788   usb_endp.o
        60         24          0         20         28       3750   usb_init.o
       608         30          0          4          0       1460   usb_int.o
       448         34          0         70          0       1419   usb_istr.o
        20          0          0          0          0        824   usb_it.o
        92          8          0          0          0       1488   usb_mem.o
       628        102          0        148          0      10501   usb_prop.o
       548         54          0         14         32       3364   usb_pwr.o
       656        102          0          0          0       8151   usb_regs.o
        82          8          0          0          0       1182   usb_sil.o

    ----------------------------------------------------------------------
     22156       2050      83608       4720      19988     521467   Object Totals
         0          0         32          0          0          0   (incl. Generated)
        32          0          5         13          6          0   (incl. Padding)

    ----------------------------------------------------------------------

      Code (inc. data)   RO Data    RW Data    ZI Data      Debug   Library Member Name

        92          0          0          0          0          0   __dczerorl2.o
         0          0          0          0          0          0   entry.o
         8          4          0          0          0          0   entry2.o
         4          0          0          0          0          0   entry5.o
         0          0          0          0          0          0   entry7b.o
         8          4          0          0          0          0   entry8.o
        30          0          0          0          0          0   handlers.o
        36          8          0          0          0         68   init.o
        30          0          0          0          0         68   llshl.o
        32          0          0          0          0         68   llushr.o
        36          0          0          0          0         68   memcpya.o
        38          0          0          0          0        108   memseta.o
      1192         52          0          0          0        420   printf8.o
        98          0          0          0          0         92   uldiv.o

    ----------------------------------------------------------------------
      1608         68          0          0          0        892   Library Totals
         4          0          0          0          0          0   (incl. Padding)

    ----------------------------------------------------------------------

      Code (inc. data)   RO Data    RW Data    ZI Data      Debug   Library Name

      1604         68          0          0          0        892   mc_w.l

    ----------------------------------------------------------------------
      1608         68          0          0          0        892   Library Totals

    ----------------------------------------------------------------------

==============================================================================


      Code (inc. data)   RO Data    RW Data    ZI Data      Debug   

     23764       2118      83608       4720      19988     506655   Grand Totals
     23764       2118      83608       1424      19988     506655   ELF Image Totals (compressed)
     23764       2118      83608       1424          0          0   ROM Totals

==============================================================================

    Total RO  Size (Code + RO Data)               107372 ( 104.86kB)
    Total RW  Size (RW Data + ZI Data)             24708 (  24.13kB)
    Total ROM Size (Code + RO Data + RW Data)     108796 ( 106.25kB)

==============================================================================

